(lp0
(lp1
F-3.0061429500159957
aF1.1265772945337076
aa(lp2
F-0.9605377376528137
aF-1.367482241780271
aa(lp3
F-2.1929067742639763
aF-0.4309004344221638
aa(lp4
F-1.0392363007722965
aF-0.7894966293408674
aa(lp5
F-2.0444412011464794
aF-1.2282122512350582
aa(lp6
F-2.639235842602231
aF-0.3582486809311515
aa(lp7
F-1.3482588844539225
aF0.24299486776907053
aa(lp8
F-1.134294007099884
aF2.028874945754859
aa(lp9
F-1.470192792517409
aF-0.7459330580761296
aa(lp10
F-1.9435430506732294
aF0.6673914649208074
aa(lp11
F-1.7823434450242468
aF0.06822008120508391
aa(lp12
F-1.4343210875787458
aF-0.2709063257135603
aa(lp13
F-2.2525927698495956
aF0.4309661309178975
aa(lp14
F0.39464549016266537
aF4.102121799474687
aa(lp15
F0.1289739222395426
aF0.18371360797047293
aa(lp16
F-0.3690011058821648
aF0.07585716639508887
aa(lp17
F-3.596155006357134
aF-0.7975408587615158
aa(lp18
F-0.8746050721779834
aF0.17645244359810733
aa(lp19
F-1.373928152661354
aF-2.404148334533094
aa(lp20
F-0.8912262094144654
aF-1.7737175400984022
aa(lp21
F-0.25674094475445036
aF-0.8228539690378276
aa(lp22
F0.4799715924265502
aF-0.4890729281573422
aa(lp23
F-1.4933569993964393
aF-1.580504324468993
aa(lp24
F-2.296377959084525
aF-2.148100148351591
aa(lp25
F-2.4694467082857963
aF0.16599619223788467
aa(lp26
F-1.838231785724769
aF-1.5533644867008272
aa(lp27
F0.3603523313721996
aF0.8517251216176864
aa(lp28
F-0.05393741686161895
aF-1.7143041727352961
aa(lp29
F-1.8204740742641161
aF-0.3514391592831374
aa(lp30
F-1.297440959363721
aF0.9563760438011493
aa(lp31
F-0.5836835135186677
aF-0.4874350741243758
aa(lp32
F-2.8896635557733674
aF0.07595932792495584
aa(lp33
F-0.35739390024636586
aF1.0156468935313483
aa(lp34
F-1.5434689737101837
aF0.5549389412818988
aa(lp35
F-1.892830416325242
aF-0.8325325183164725
aa(lp36
F-1.3310065686749726
aF-0.990898272880225
aa(lp37
F-3.352558274250062
aF-1.741606168438895
aa(lp38
F-0.9632354415022132
aF0.4500967207578261
aa(lp39
F0.4089902858056523
aF-1.4277132637711998
aa(lp40
F-3.840541231150202
aF1.8413696280707639
aa(lp41
F-0.1492789705466188
aF-0.4407082752610655
aa(lp42
F-0.5989693881646421
aF0.5153019293205384
aa(lp43
F-2.483404215973836
aF-0.7528252901071815
aa(lp44
F-0.890502803060496
aF-0.34246913135063173
aa(lp45
F-0.5534672930501704
aF-1.2309864423668664
aa(lp46
F-2.5225152205090815
aF-1.6746655077201493
aa(lp47
F-1.9270108625598332
aF-2.896913830358687
aa(lp48
F-2.068011204940098
aF1.1256586511840923
aa.