(dp0
S'coords'
p1
(lp2
(F-5.0
F-28.0
tp3
a(F-5.0
F-27.666666666666668
tp4
a(F-5.0
F-27.333333333333332
tp5
a(F-5.0
F-27.0
tp6
a(F-5.0
F-26.666666666666668
tp7
a(F-5.0
F-26.333333333333332
tp8
a(F-4.818181818181818
F-28.0
tp9
a(F-4.818181818181818
F-27.666666666666668
tp10
a(F-4.818181818181818
F-27.333333333333332
tp11
a(F-4.818181818181818
F-27.0
tp12
a(F-4.818181818181818
F-26.666666666666668
tp13
a(F-4.818181818181818
F-26.333333333333332
tp14
a(F-4.636363636363637
F-28.0
tp15
a(F-4.636363636363637
F-27.666666666666668
tp16
a(F-4.636363636363637
F-27.333333333333332
tp17
a(F-4.636363636363637
F-27.0
tp18
a(F-4.636363636363637
F-26.666666666666668
tp19
a(F-4.636363636363637
F-26.333333333333332
tp20
a(F-4.454545454545455
F-28.0
tp21
a(F-4.454545454545455
F-27.666666666666668
tp22
a(F-4.454545454545455
F-27.333333333333332
tp23
a(F-4.454545454545455
F-27.0
tp24
a(F-4.454545454545455
F-26.666666666666668
tp25
a(F-4.454545454545455
F-26.333333333333332
tp26
a(F-4.2727272727272725
F-28.0
tp27
a(F-4.2727272727272725
F-27.666666666666668
tp28
a(F-4.2727272727272725
F-27.333333333333332
tp29
a(F-4.2727272727272725
F-27.0
tp30
a(F-4.2727272727272725
F-26.666666666666668
tp31
a(F-4.2727272727272725
F-26.333333333333332
tp32
a(F-4.090909090909091
F-28.0
tp33
a(F-4.090909090909091
F-27.666666666666668
tp34
a(F-4.090909090909091
F-27.333333333333332
tp35
a(F-4.090909090909091
F-27.0
tp36
a(F-4.090909090909091
F-26.666666666666668
tp37
a(F-4.090909090909091
F-26.333333333333332
tp38
a(F-3.909090909090909
F-28.0
tp39
a(F-3.909090909090909
F-27.666666666666668
tp40
a(F-3.909090909090909
F-27.333333333333332
tp41
a(F-3.909090909090909
F-27.0
tp42
a(F-3.909090909090909
F-26.666666666666668
tp43
a(F-3.909090909090909
F-26.333333333333332
tp44
a(F-3.7272727272727275
F-28.0
tp45
a(F-3.7272727272727275
F-27.666666666666668
tp46
a(F-3.7272727272727275
F-27.333333333333332
tp47
a(F-3.7272727272727275
F-27.0
tp48
a(F-3.7272727272727275
F-26.666666666666668
tp49
a(F-3.7272727272727275
F-26.333333333333332
tp50
a(F-3.5454545454545454
F-28.0
tp51
a(F-3.5454545454545454
F-27.666666666666668
tp52
a(F-3.5454545454545454
F-27.333333333333332
tp53
a(F-3.5454545454545454
F-27.0
tp54
a(F-3.5454545454545454
F-26.666666666666668
tp55
a(F-3.5454545454545454
F-26.333333333333332
tp56
a(F-3.3636363636363633
F-28.0
tp57
a(F-3.3636363636363633
F-27.666666666666668
tp58
a(F-3.3636363636363633
F-27.333333333333332
tp59
a(F-3.3636363636363633
F-27.0
tp60
a(F-3.3636363636363633
F-26.666666666666668
tp61
a(F-3.3636363636363633
F-26.333333333333332
tp62
a(F-3.1818181818181817
F-28.0
tp63
a(F-3.1818181818181817
F-27.666666666666668
tp64
a(F-3.1818181818181817
F-27.333333333333332
tp65
a(F-3.1818181818181817
F-27.0
tp66
a(F-3.1818181818181817
F-26.666666666666668
tp67
a(F-3.1818181818181817
F-26.333333333333332
tp68
asS'movement'
p69
(dp70
I0
ccollections
OrderedDict
p71
((lp72
(lp73
I0
aI0
aa(lp74
I1
aI1
aa(lp75
I2
aI2
aa(lp76
I3
aI2
aa(lp77
I4
aI3
aa(lp78
I5
aI3
aa(lp79
I6
aI4
aa(lp80
I7
aI5
aa(lp81
I8
aI6
aa(lp82
I9
aI6
aa(lp83
I10
aI7
aa(lp84
I11
aI8
aa(lp85
I12
aI8
aa(lp86
I13
aI9
aa(lp87
I14
aI9
aa(lp88
I70
aI9
aa(lp89
I71
aI9
aa(lp90
I72
aI9
aa(lp91
I73
aI9
aa(lp92
I74
aI9
aa(lp93
I75
aI9
aa(lp94
I76
aI9
aa(lp95
I77
aI9
aa(lp96
I78
aI9
aa(lp97
I79
aI9
aa(lp98
I80
aI9
aa(lp99
I81
aI9
aa(lp100
I82
aI9
aa(lp101
I83
aI9
aa(lp102
I84
aI9
aa(lp103
I140
aI8
aa(lp104
I141
aI8
aa(lp105
I142
aI18
aa(lp106
I143
aI18
aa(lp107
I144
aI17
aa(lp108
I145
aI17
aa(lp109
I146
aI28
aa(lp110
I147
aI27
aa(lp111
I148
aI38
aa(lp112
I149
aI37
aa(lp113
I150
aI37
aa(lp114
I151
aI48
aa(lp115
I152
aI47
aa(lp116
I153
aI47
aa(lp117
I154
aI46
aa(lp118
I165
aI35
aa(lp119
I166
aI35
aa(lp120
I167
aI35
aa(lp121
I168
aI35
aa(lp122
I169
aI35
aa(lp123
I170
aI35
aa(lp124
I171
aI35
aa(lp125
I172
aI35
aa(lp126
I173
aI35
aa(lp127
I174
aI35
aa(lp128
I175
aI35
aa(lp129
I176
aI35
aa(lp130
I177
aI35
aa(lp131
I178
aI35
aa(lp132
I179
aI25
aa(lp133
I235
aI14
aa(lp134
I236
aI14
aa(lp135
I237
aI15
aa(lp136
I238
aI15
aa(lp137
I239
aI15
aa(lp138
I240
aI15
aa(lp139
I241
aI16
aa(lp140
I242
aI16
aa(lp141
I243
aI16
aa(lp142
I244
aI17
aa(lp143
I245
aI17
aa(lp144
I246
aI17
aa(lp145
I247
aI18
aa(lp146
I248
aI18
aa(lp147
I249
aI18
aa(lp148
I305
aI17
aa(lp149
I306
aI17
aa(lp150
I307
aI17
aa(lp151
I308
aI16
aa(lp152
I309
aI16
aa(lp153
I310
aI16
aa(lp154
I311
aI16
aa(lp155
I312
aI26
aa(lp156
I313
aI26
aa(lp157
I314
aI26
aa(lp158
I315
aI26
aa(lp159
I316
aI25
aa(lp160
I317
aI25
aa(lp161
I318
aI25
aa(lp162
I319
aI25
aa(lp163
I375
aI25
aa(lp164
I376
aI25
aa(lp165
I377
aI25
aa(lp166
I378
aI25
aa(lp167
I379
aI26
aa(lp168
I380
aI26
aa(lp169
I381
aI26
aa(lp170
I382
aI37
aa(lp171
I383
aI37
aa(lp172
I384
aI38
aa(lp173
I385
aI38
aa(lp174
I386
aI38
aa(lp175
I387
aI38
aa(lp176
I388
aI38
aa(lp177
I389
aI39
aa(lp178
I445
aI27
aa(lp179
I446
aI27
aa(lp180
I447
aI27
aa(lp181
I448
aI27
aa(lp182
I449
aI27
aa(lp183
I450
aI27
aa(lp184
I451
aI27
aa(lp185
I452
aI15
aa(lp186
I453
aI15
aa(lp187
I454
aI15
aa(lp188
I455
aI15
aa(lp189
I456
aI15
aa(lp190
I457
aI15
aa(lp191
I458
aI15
aa(lp192
I459
aI14
aa(lp193
I470
aI14
aa(lp194
I471
aI14
aa(lp195
I472
aI14
aa(lp196
I473
aI14
aa(lp197
I474
aI14
aa(lp198
I475
aI14
aa(lp199
I476
aI14
aa(lp200
I477
aI25
aa(lp201
I478
aI25
aa(lp202
I479
aI25
aa(lp203
I480
aI25
aa(lp204
I481
aI25
aa(lp205
I482
aI25
aa(lp206
I483
aI25
aa(lp207
I484
aI25
aa(lp208
I540
aI24
aa(lp209
I541
aI24
aa(lp210
I542
aI24
aa(lp211
I543
aI24
aa(lp212
I544
aI24
aa(lp213
I545
aI24
aa(lp214
I546
aI24
aa(lp215
I547
aI24
aa(lp216
I548
aI24
aa(lp217
I549
aI24
aa(lp218
I550
aI24
aa(lp219
I551
aI24
aa(lp220
I552
aI24
aa(lp221
I553
aI24
aa(lp222
I554
aI34
aatp223
Rp224
sI1
g71
((lp225
(lp226
I0
aI1
aa(lp227
I1
aI2
aa(lp228
I2
aI2
aa(lp229
I3
aI3
aa(lp230
I4
aI4
aa(lp231
I5
aI4
aa(lp232
I6
aI5
aa(lp233
I7
aI5
aa(lp234
I8
aI6
aa(lp235
I9
aI6
aa(lp236
I10
aI7
aa(lp237
I11
aI8
aa(lp238
I12
aI8
aa(lp239
I13
aI9
aa(lp240
I14
aI9
aa(lp241
I70
aI9
aa(lp242
I71
aI9
aa(lp243
I72
aI9
aa(lp244
I73
aI9
aa(lp245
I74
aI9
aa(lp246
I75
aI9
aa(lp247
I76
aI9
aa(lp248
I77
aI9
aa(lp249
I78
aI9
aa(lp250
I79
aI9
aa(lp251
I80
aI9
aa(lp252
I81
aI9
aa(lp253
I82
aI9
aa(lp254
I83
aI9
aa(lp255
I84
aI9
aa(lp256
I140
aI8
aa(lp257
I141
aI7
aa(lp258
I142
aI7
aa(lp259
I143
aI6
aa(lp260
I144
aI6
aa(lp261
I145
aI5
aa(lp262
I146
aI5
aa(lp263
I147
aI4
aa(lp264
I148
aI4
aa(lp265
I149
aI3
aa(lp266
I150
aI3
aa(lp267
I151
aI2
aa(lp268
I152
aI2
aa(lp269
I153
aI1
aa(lp270
I154
aI1
aa(lp271
I165
aI1
aa(lp272
I166
aI1
aa(lp273
I167
aI1
aa(lp274
I168
aI12
aa(lp275
I169
aI12
aa(lp276
I170
aI12
aa(lp277
I171
aI12
aa(lp278
I172
aI23
aa(lp279
I173
aI23
aa(lp280
I174
aI23
aa(lp281
I175
aI23
aa(lp282
I176
aI34
aa(lp283
I177
aI34
aa(lp284
I178
aI34
aa(lp285
I179
aI34
aa(lp286
I235
aI23
aa(lp287
I236
aI23
aa(lp288
I237
aI23
aa(lp289
I238
aI23
aa(lp290
I239
aI12
aa(lp291
I240
aI12
aa(lp292
I241
aI12
aa(lp293
I242
aI12
aa(lp294
I243
aI12
aa(lp295
I244
aI1
aa(lp296
I245
aI1
aa(lp297
I246
aI1
aa(lp298
I247
aI1
aa(lp299
I248
aI1
aa(lp300
I249
aI1
aa(lp301
I305
aI1
aa(lp302
I306
aI1
aa(lp303
I307
aI1
aa(lp304
I308
aI12
aa(lp305
I309
aI12
aa(lp306
I310
aI12
aa(lp307
I311
aI12
aa(lp308
I312
aI23
aa(lp309
I313
aI23
aa(lp310
I314
aI23
aa(lp311
I315
aI23
aa(lp312
I316
aI34
aa(lp313
I317
aI34
aa(lp314
I318
aI34
aa(lp315
I319
aI34
aa(lp316
I375
aI23
aa(lp317
I376
aI24
aa(lp318
I377
aI24
aa(lp319
I378
aI25
aa(lp320
I379
aI25
aa(lp321
I380
aI26
aa(lp322
I381
aI26
aa(lp323
I382
aI16
aa(lp324
I383
aI16
aa(lp325
I384
aI17
aa(lp326
I385
aI17
aa(lp327
I386
aI18
aa(lp328
I387
aI18
aa(lp329
I388
aI19
aa(lp330
I389
aI19
aa(lp331
I459
aI19
aa(lp332
I470
aI18
aa(lp333
I471
aI18
aa(lp334
I472
aI17
aa(lp335
I473
aI17
aa(lp336
I474
aI16
aa(lp337
I475
aI27
aa(lp338
I476
aI26
aa(lp339
I477
aI26
aa(lp340
I478
aI25
aa(lp341
I479
aI36
aa(lp342
I480
aI35
aa(lp343
I481
aI35
aa(lp344
I482
aI34
aa(lp345
I483
aI34
aa(lp346
I484
aI44
aa(lp347
I540
aI44
aa(lp348
I541
aI45
aa(lp349
I542
aI46
aa(lp350
I543
aI46
aa(lp351
I544
aI47
aa(lp352
I545
aI47
aa(lp353
I546
aI48
aa(lp354
I547
aI49
aa(lp355
I548
aI50
aa(lp356
I549
aI50
aa(lp357
I550
aI51
aa(lp358
I551
aI52
aa(lp359
I552
aI52
aa(lp360
I553
aI53
aa(lp361
I554
aI53
aatp362
Rp363
sI2
g71
((lp364
(lp365
I0
aI2
aa(lp366
I1
aI2
aa(lp367
I2
aI3
aa(lp368
I3
aI3
aa(lp369
I4
aI3
aa(lp370
I5
aI4
aa(lp371
I6
aI4
aa(lp372
I7
aI4
aa(lp373
I8
aI5
aa(lp374
I9
aI5
aa(lp375
I10
aI5
aa(lp376
I11
aI5
aa(lp377
I12
aI6
aa(lp378
I13
aI6
aa(lp379
I14
aI6
aa(lp380
I70
aI6
aa(lp381
I71
aI6
aa(lp382
I72
aI6
aa(lp383
I73
aI6
aa(lp384
I74
aI6
aa(lp385
I75
aI6
aa(lp386
I76
aI6
aa(lp387
I77
aI6
aa(lp388
I78
aI6
aa(lp389
I79
aI6
aa(lp390
I80
aI6
aa(lp391
I81
aI6
aa(lp392
I82
aI6
aa(lp393
I83
aI6
aa(lp394
I84
aI6
aa(lp395
I140
aI5
aa(lp396
I141
aI5
aa(lp397
I142
aI5
aa(lp398
I143
aI4
aa(lp399
I144
aI4
aa(lp400
I145
aI4
aa(lp401
I146
aI3
aa(lp402
I147
aI3
aa(lp403
I148
aI3
aa(lp404
I149
aI2
aa(lp405
I150
aI2
aa(lp406
I151
aI2
aa(lp407
I152
aI1
aa(lp408
I153
aI1
aa(lp409
I154
aI1
aa(lp410
I165
aI1
aa(lp411
I166
aI1
aa(lp412
I167
aI2
aa(lp413
I168
aI13
aa(lp414
I169
aI13
aa(lp415
I170
aI14
aa(lp416
I171
aI14
aa(lp417
I172
aI26
aa(lp418
I173
aI26
aa(lp419
I174
aI27
aa(lp420
I175
aI27
aa(lp421
I176
aI38
aa(lp422
I177
aI39
aa(lp423
I178
aI39
aa(lp424
I179
aI40
aa(lp425
I235
aI28
aa(lp426
I236
aI28
aa(lp427
I237
aI28
aa(lp428
I238
aI27
aa(lp429
I239
aI16
aa(lp430
I240
aI16
aa(lp431
I241
aI15
aa(lp432
I242
aI15
aa(lp433
I243
aI15
aa(lp434
I244
aI3
aa(lp435
I245
aI3
aa(lp436
I246
aI3
aa(lp437
I247
aI2
aa(lp438
I248
aI2
aa(lp439
I249
aI2
aa(lp440
I305
aI2
aa(lp441
I306
aI2
aa(lp442
I307
aI3
aa(lp443
I308
aI14
aa(lp444
I309
aI14
aa(lp445
I310
aI15
aa(lp446
I311
aI15
aa(lp447
I312
aI26
aa(lp448
I313
aI27
aa(lp449
I314
aI27
aa(lp450
I315
aI27
aa(lp451
I316
aI38
aa(lp452
I317
aI39
aa(lp453
I318
aI39
aa(lp454
I319
aI39
aa(lp455
I375
aI39
aa(lp456
I376
aI39
aa(lp457
I377
aI39
aa(lp458
I378
aI39
aa(lp459
I379
aI39
aa(lp460
I380
aI39
aa(lp461
I381
aI39
aa(lp462
I382
aI39
aa(lp463
I383
aI39
aa(lp464
I384
aI39
aa(lp465
I385
aI39
aa(lp466
I386
aI39
aa(lp467
I387
aI39
aa(lp468
I388
aI39
aa(lp469
I389
aI50
aa(lp470
I445
aI38
aa(lp471
I446
aI38
aa(lp472
I447
aI38
aa(lp473
I448
aI38
aa(lp474
I449
aI27
aa(lp475
I450
aI27
aa(lp476
I451
aI27
aa(lp477
I452
aI26
aa(lp478
I453
aI26
aa(lp479
I454
aI15
aa(lp480
I455
aI15
aa(lp481
I456
aI15
aa(lp482
I457
aI15
aa(lp483
I458
aI15
aa(lp484
I459
aI3
aa(lp485
I470
aI3
aa(lp486
I471
aI3
aa(lp487
I472
aI3
aa(lp488
I473
aI15
aa(lp489
I474
aI15
aa(lp490
I475
aI15
aa(lp491
I476
aI15
aa(lp492
I477
aI27
aa(lp493
I478
aI27
aa(lp494
I479
aI27
aa(lp495
I480
aI27
aa(lp496
I481
aI39
aa(lp497
I482
aI39
aa(lp498
I483
aI39
aa(lp499
I484
aI39
aa(lp500
I540
aI27
aa(lp501
I541
aI27
aa(lp502
I542
aI27
aa(lp503
I543
aI27
aa(lp504
I544
aI27
aa(lp505
I545
aI27
aa(lp506
I546
aI27
aa(lp507
I547
aI16
aa(lp508
I548
aI16
aa(lp509
I549
aI16
aa(lp510
I550
aI16
aa(lp511
I551
aI16
aa(lp512
I552
aI16
aa(lp513
I553
aI16
aa(lp514
I554
aI16
aatp515
Rp516
sI3
g71
((lp517
(lp518
I0
aI3
aa(lp519
I1
aI3
aa(lp520
I2
aI4
aa(lp521
I3
aI4
aa(lp522
I4
aI5
aa(lp523
I5
aI5
aa(lp524
I6
aI6
aa(lp525
I7
aI6
aa(lp526
I8
aI7
aa(lp527
I9
aI7
aa(lp528
I10
aI8
aa(lp529
I11
aI8
aa(lp530
I12
aI9
aa(lp531
I13
aI9
aa(lp532
I14
aI10
aa(lp533
I70
aI10
aa(lp534
I71
aI10
aa(lp535
I72
aI10
aa(lp536
I73
aI10
aa(lp537
I74
aI10
aa(lp538
I75
aI10
aa(lp539
I76
aI10
aa(lp540
I77
aI10
aa(lp541
I78
aI10
aa(lp542
I79
aI10
aa(lp543
I80
aI10
aa(lp544
I81
aI10
aa(lp545
I82
aI10
aa(lp546
I83
aI10
aa(lp547
I84
aI10
aa(lp548
I140
aI9
aa(lp549
I141
aI9
aa(lp550
I142
aI8
aa(lp551
I143
aI8
aa(lp552
I144
aI7
aa(lp553
I145
aI7
aa(lp554
I146
aI7
aa(lp555
I147
aI17
aa(lp556
I148
aI17
aa(lp557
I149
aI16
aa(lp558
I150
aI16
aa(lp559
I151
aI16
aa(lp560
I152
aI15
aa(lp561
I153
aI15
aa(lp562
I154
aI14
aa(lp563
I165
aI14
aa(lp564
I166
aI14
aa(lp565
I167
aI14
aa(lp566
I168
aI15
aa(lp567
I169
aI15
aa(lp568
I170
aI26
aa(lp569
I171
aI26
aa(lp570
I172
aI27
aa(lp571
I173
aI27
aa(lp572
I174
aI38
aa(lp573
I175
aI38
aa(lp574
I176
aI39
aa(lp575
I177
aI39
aa(lp576
I178
aI39
aa(lp577
I179
aI50
aa(lp578
I235
aI38
aa(lp579
I236
aI38
aa(lp580
I237
aI38
aa(lp581
I238
aI37
aa(lp582
I239
aI26
aa(lp583
I240
aI26
aa(lp584
I241
aI26
aa(lp585
I242
aI25
aa(lp586
I243
aI25
aa(lp587
I244
aI14
aa(lp588
I245
aI14
aa(lp589
I246
aI13
aa(lp590
I247
aI13
aa(lp591
I248
aI13
aa(lp592
I249
aI2
aa(lp593
I305
aI2
aa(lp594
I306
aI2
aa(lp595
I307
aI3
aa(lp596
I308
aI14
aa(lp597
I309
aI14
aa(lp598
I310
aI15
aa(lp599
I311
aI15
aa(lp600
I312
aI26
aa(lp601
I313
aI27
aa(lp602
I314
aI27
aa(lp603
I315
aI27
aa(lp604
I316
aI38
aa(lp605
I317
aI39
aa(lp606
I318
aI39
aa(lp607
I319
aI39
aa(lp608
I375
aI39
aa(lp609
I376
aI39
aa(lp610
I377
aI39
aa(lp611
I378
aI39
aa(lp612
I379
aI40
aa(lp613
I380
aI40
aa(lp614
I381
aI40
aa(lp615
I382
aI40
aa(lp616
I383
aI40
aa(lp617
I384
aI41
aa(lp618
I385
aI41
aa(lp619
I386
aI41
aa(lp620
I387
aI41
aa(lp621
I388
aI41
aa(lp622
I389
aI52
aa(lp623
I445
aI40
aa(lp624
I446
aI40
aa(lp625
I447
aI40
aa(lp626
I448
aI39
aa(lp627
I449
aI28
aa(lp628
I450
aI28
aa(lp629
I451
aI28
aa(lp630
I452
aI27
aa(lp631
I453
aI27
aa(lp632
I454
aI16
aa(lp633
I455
aI16
aa(lp634
I456
aI15
aa(lp635
I457
aI15
aa(lp636
I458
aI15
aa(lp637
I459
aI4
aa(lp638
I470
aI4
aa(lp639
I471
aI4
aa(lp640
I472
aI4
aa(lp641
I473
aI15
aa(lp642
I474
aI16
aa(lp643
I475
aI16
aa(lp644
I476
aI16
aa(lp645
I477
aI27
aa(lp646
I478
aI27
aa(lp647
I479
aI28
aa(lp648
I480
aI28
aa(lp649
I481
aI39
aa(lp650
I482
aI39
aa(lp651
I483
aI39
aa(lp652
I484
aI40
aa(lp653
I540
aI39
aa(lp654
I541
aI39
aa(lp655
I542
aI39
aa(lp656
I543
aI38
aa(lp657
I544
aI38
aa(lp658
I545
aI38
aa(lp659
I546
aI37
aa(lp660
I547
aI37
aa(lp661
I548
aI37
aa(lp662
I549
aI36
aa(lp663
I550
aI36
aa(lp664
I551
aI36
aa(lp665
I552
aI35
aa(lp666
I553
aI35
aa(lp667
I554
aI35
aatp668
Rp669
sI4
g71
((lp670
(lp671
I0
aI4
aa(lp672
I1
aI4
aa(lp673
I2
aI5
aa(lp674
I3
aI5
aa(lp675
I4
aI6
aa(lp676
I5
aI6
aa(lp677
I6
aI6
aa(lp678
I7
aI7
aa(lp679
I8
aI7
aa(lp680
I9
aI8
aa(lp681
I10
aI8
aa(lp682
I11
aI8
aa(lp683
I12
aI9
aa(lp684
I13
aI9
aa(lp685
I14
aI10
aa(lp686
I70
aI10
aa(lp687
I71
aI10
aa(lp688
I72
aI10
aa(lp689
I73
aI10
aa(lp690
I74
aI10
aa(lp691
I75
aI10
aa(lp692
I76
aI10
aa(lp693
I77
aI10
aa(lp694
I78
aI10
aa(lp695
I79
aI10
aa(lp696
I80
aI10
aa(lp697
I81
aI10
aa(lp698
I82
aI10
aa(lp699
I83
aI10
aa(lp700
I84
aI10
aa(lp701
I140
aI9
aa(lp702
I141
aI9
aa(lp703
I142
aI8
aa(lp704
I143
aI8
aa(lp705
I144
aI7
aa(lp706
I145
aI7
aa(lp707
I146
aI7
aa(lp708
I147
aI17
aa(lp709
I148
aI17
aa(lp710
I149
aI16
aa(lp711
I150
aI16
aa(lp712
I151
aI16
aa(lp713
I152
aI15
aa(lp714
I153
aI15
aa(lp715
I154
aI14
aa(lp716
I165
aI13
aa(lp717
I166
aI13
aa(lp718
I167
aI13
aa(lp719
I168
aI24
aa(lp720
I169
aI24
aa(lp721
I170
aI24
aa(lp722
I171
aI24
aa(lp723
I172
aI34
aa(lp724
I173
aI34
aa(lp725
I174
aI34
aa(lp726
I175
aI34
aa(lp727
I176
aI45
aa(lp728
I177
aI45
aa(lp729
I178
aI45
aa(lp730
I179
aI45
aa(lp731
I235
aI34
aa(lp732
I236
aI34
aa(lp733
I237
aI34
aa(lp734
I238
aI34
aa(lp735
I239
aI23
aa(lp736
I240
aI23
aa(lp737
I241
aI23
aa(lp738
I242
aI23
aa(lp739
I243
aI23
aa(lp740
I244
aI12
aa(lp741
I245
aI12
aa(lp742
I246
aI12
aa(lp743
I247
aI12
aa(lp744
I248
aI12
aa(lp745
I249
aI1
aa(lp746
I305
aI1
aa(lp747
I306
aI1
aa(lp748
I307
aI12
aa(lp749
I308
aI12
aa(lp750
I309
aI12
aa(lp751
I310
aI12
aa(lp752
I311
aI23
aa(lp753
I312
aI23
aa(lp754
I313
aI34
aa(lp755
I314
aI34
aa(lp756
I315
aI34
aa(lp757
I316
aI45
aa(lp758
I317
aI45
aa(lp759
I318
aI45
aa(lp760
I319
aI45
aa(lp761
I375
aI45
aa(lp762
I376
aI45
aa(lp763
I377
aI45
aa(lp764
I378
aI46
aa(lp765
I379
aI46
aa(lp766
I380
aI47
aa(lp767
I381
aI47
aa(lp768
I382
aI47
aa(lp769
I383
aI48
aa(lp770
I384
aI48
aa(lp771
I385
aI48
aa(lp772
I386
aI48
aa(lp773
I387
aI49
aa(lp774
I388
aI49
aa(lp775
I389
aI49
aa(lp776
I445
aI37
aa(lp777
I446
aI37
aa(lp778
I447
aI37
aa(lp779
I448
aI37
aa(lp780
I449
aI26
aa(lp781
I450
aI26
aa(lp782
I451
aI26
aa(lp783
I452
aI26
aa(lp784
I453
aI26
aa(lp785
I454
aI15
aa(lp786
I455
aI15
aa(lp787
I456
aI15
aa(lp788
I457
aI15
aa(lp789
I458
aI15
aa(lp790
I459
aI4
aa(lp791
I470
aI3
aa(lp792
I471
aI3
aa(lp793
I472
aI14
aa(lp794
I473
aI14
aa(lp795
I474
aI13
aa(lp796
I475
aI13
aa(lp797
I476
aI24
aa(lp798
I477
aI24
aa(lp799
I478
aI35
aa(lp800
I479
aI34
aa(lp801
I480
aI34
aa(lp802
I481
aI45
aa(lp803
I482
aI45
aa(lp804
I483
aI45
aa(lp805
I484
aI44
aa(lp806
I540
aI33
aa(lp807
I541
aI33
aa(lp808
I542
aI33
aa(lp809
I543
aI33
aa(lp810
I544
aI33
aa(lp811
I545
aI33
aa(lp812
I546
aI33
aa(lp813
I547
aI34
aa(lp814
I548
aI34
aa(lp815
I549
aI34
aa(lp816
I550
aI34
aa(lp817
I551
aI34
aa(lp818
I552
aI34
aa(lp819
I553
aI34
aa(lp820
I554
aI23
aatp821
Rp822
sI5
g71
((lp823
(lp824
I0
aI5
aa(lp825
I1
aI5
aa(lp826
I2
aI5
aa(lp827
I3
aI6
aa(lp828
I4
aI6
aa(lp829
I5
aI6
aa(lp830
I6
aI6
aa(lp831
I7
aI7
aa(lp832
I8
aI7
aa(lp833
I9
aI7
aa(lp834
I10
aI7
aa(lp835
I11
aI8
aa(lp836
I12
aI8
aa(lp837
I13
aI8
aa(lp838
I14
aI9
aa(lp839
I70
aI9
aa(lp840
I71
aI9
aa(lp841
I72
aI9
aa(lp842
I73
aI9
aa(lp843
I74
aI9
aa(lp844
I75
aI9
aa(lp845
I76
aI9
aa(lp846
I77
aI9
aa(lp847
I78
aI9
aa(lp848
I79
aI9
aa(lp849
I80
aI9
aa(lp850
I81
aI9
aa(lp851
I82
aI9
aa(lp852
I83
aI9
aa(lp853
I84
aI9
aa(lp854
I140
aI8
aa(lp855
I141
aI8
aa(lp856
I142
aI18
aa(lp857
I143
aI18
aa(lp858
I144
aI17
aa(lp859
I145
aI17
aa(lp860
I146
aI28
aa(lp861
I147
aI27
aa(lp862
I148
aI38
aa(lp863
I149
aI37
aa(lp864
I150
aI37
aa(lp865
I151
aI48
aa(lp866
I152
aI47
aa(lp867
I153
aI47
aa(lp868
I154
aI46
aa(lp869
I165
aI35
aa(lp870
I166
aI35
aa(lp871
I167
aI35
aa(lp872
I168
aI35
aa(lp873
I169
aI35
aa(lp874
I170
aI35
aa(lp875
I171
aI35
aa(lp876
I172
aI35
aa(lp877
I173
aI35
aa(lp878
I174
aI35
aa(lp879
I175
aI35
aa(lp880
I176
aI35
aa(lp881
I177
aI35
aa(lp882
I178
aI35
aa(lp883
I179
aI25
aa(lp884
I235
aI13
aa(lp885
I236
aI13
aa(lp886
I237
aI13
aa(lp887
I238
aI13
aa(lp888
I239
aI13
aa(lp889
I240
aI13
aa(lp890
I241
aI13
aa(lp891
I242
aI2
aa(lp892
I243
aI2
aa(lp893
I244
aI2
aa(lp894
I245
aI2
aa(lp895
I246
aI2
aa(lp896
I247
aI2
aa(lp897
I248
aI2
aa(lp898
I249
aI1
aa(lp899
I305
aI1
aa(lp900
I306
aI1
aa(lp901
I307
aI1
aa(lp902
I308
aI1
aa(lp903
I309
aI12
aa(lp904
I310
aI12
aa(lp905
I311
aI12
aa(lp906
I312
aI13
aa(lp907
I313
aI13
aa(lp908
I314
aI13
aa(lp909
I315
aI24
aa(lp910
I316
aI24
aa(lp911
I317
aI24
aa(lp912
I318
aI24
aa(lp913
I319
aI35
aa(lp914
I375
aI24
aa(lp915
I376
aI24
aa(lp916
I377
aI25
aa(lp917
I378
aI25
aa(lp918
I379
aI26
aa(lp919
I380
aI26
aa(lp920
I381
aI27
aa(lp921
I382
aI16
aa(lp922
I383
aI17
aa(lp923
I384
aI17
aa(lp924
I385
aI18
aa(lp925
I386
aI18
aa(lp926
I387
aI19
aa(lp927
I388
aI19
aa(lp928
I389
aI20
aa(lp929
I445
aI19
aa(lp930
I446
aI19
aa(lp931
I447
aI19
aa(lp932
I448
aI19
aa(lp933
I449
aI19
aa(lp934
I450
aI19
aa(lp935
I451
aI19
aa(lp936
I452
aI19
aa(lp937
I453
aI19
aa(lp938
I454
aI19
aa(lp939
I455
aI19
aa(lp940
I456
aI19
aa(lp941
I457
aI19
aa(lp942
I458
aI19
aa(lp943
I459
aI19
aa(lp944
I470
aI18
aa(lp945
I471
aI18
aa(lp946
I472
aI18
aa(lp947
I473
aI17
aa(lp948
I474
aI17
aa(lp949
I475
aI17
aa(lp950
I476
aI16
aa(lp951
I477
aI27
aa(lp952
I478
aI27
aa(lp953
I479
aI26
aa(lp954
I480
aI26
aa(lp955
I481
aI26
aa(lp956
I482
aI25
aa(lp957
I483
aI25
aa(lp958
I484
aI25
aa(lp959
I540
aI25
aa(lp960
I541
aI25
aa(lp961
I542
aI26
aa(lp962
I543
aI26
aa(lp963
I544
aI27
aa(lp964
I545
aI27
aa(lp965
I546
aI28
aa(lp966
I547
aI39
aa(lp967
I548
aI40
aa(lp968
I549
aI40
aa(lp969
I550
aI41
aa(lp970
I551
aI41
aa(lp971
I552
aI42
aa(lp972
I553
aI42
aa(lp973
I554
aI43
aatp974
Rp975
sI6
g71
((lp976
(lp977
I0
aI6
aa(lp978
I1
aI6
aa(lp979
I2
aI6
aa(lp980
I3
aI6
aa(lp981
I4
aI7
aa(lp982
I5
aI7
aa(lp983
I6
aI7
aa(lp984
I7
aI7
aa(lp985
I8
aI7
aa(lp986
I9
aI8
aa(lp987
I10
aI8
aa(lp988
I11
aI8
aa(lp989
I12
aI8
aa(lp990
I13
aI8
aa(lp991
I14
aI8
aa(lp992
I70
aI8
aa(lp993
I71
aI8
aa(lp994
I72
aI8
aa(lp995
I73
aI8
aa(lp996
I74
aI8
aa(lp997
I75
aI8
aa(lp998
I76
aI8
aa(lp999
I77
aI8
aa(lp1000
I78
aI8
aa(lp1001
I79
aI8
aa(lp1002
I80
aI8
aa(lp1003
I81
aI8
aa(lp1004
I82
aI8
aa(lp1005
I83
aI8
aa(lp1006
I84
aI8
aa(lp1007
I140
aI7
aa(lp1008
I141
aI7
aa(lp1009
I142
aI6
aa(lp1010
I143
aI6
aa(lp1011
I144
aI5
aa(lp1012
I145
aI5
aa(lp1013
I146
aI4
aa(lp1014
I147
aI4
aa(lp1015
I148
aI3
aa(lp1016
I149
aI3
aa(lp1017
I150
aI2
aa(lp1018
I151
aI2
aa(lp1019
I152
aI1
aa(lp1020
I153
aI1
aa(lp1021
I154
aI0
aa(lp1022
I165
aI0
aa(lp1023
I166
aI0
aa(lp1024
I167
aI1
aa(lp1025
I168
aI12
aa(lp1026
I169
aI13
aa(lp1027
I170
aI13
aa(lp1028
I171
aI14
aa(lp1029
I172
aI25
aa(lp1030
I173
aI26
aa(lp1031
I174
aI26
aa(lp1032
I175
aI27
aa(lp1033
I176
aI38
aa(lp1034
I177
aI39
aa(lp1035
I178
aI39
aa(lp1036
I179
aI40
aa(lp1037
I235
aI28
aa(lp1038
I236
aI28
aa(lp1039
I237
aI28
aa(lp1040
I238
aI27
aa(lp1041
I239
aI27
aa(lp1042
I240
aI27
aa(lp1043
I241
aI26
aa(lp1044
I242
aI15
aa(lp1045
I243
aI15
aa(lp1046
I244
aI14
aa(lp1047
I245
aI14
aa(lp1048
I246
aI14
aa(lp1049
I247
aI13
aa(lp1050
I248
aI13
aa(lp1051
I249
aI13
aa(lp1052
I305
aI13
aa(lp1053
I306
aI13
aa(lp1054
I307
aI14
aa(lp1055
I308
aI14
aa(lp1056
I309
aI14
aa(lp1057
I310
aI26
aa(lp1058
I311
aI26
aa(lp1059
I312
aI26
aa(lp1060
I313
aI27
aa(lp1061
I314
aI38
aa(lp1062
I315
aI38
aa(lp1063
I316
aI38
aa(lp1064
I317
aI39
aa(lp1065
I318
aI39
aa(lp1066
I319
aI50
aa(lp1067
I389
aI50
aa(lp1068
I445
aI38
aa(lp1069
I446
aI38
aa(lp1070
I447
aI38
aa(lp1071
I448
aI38
aa(lp1072
I449
aI27
aa(lp1073
I450
aI27
aa(lp1074
I451
aI27
aa(lp1075
I452
aI26
aa(lp1076
I453
aI26
aa(lp1077
I454
aI15
aa(lp1078
I455
aI15
aa(lp1079
I456
aI15
aa(lp1080
I457
aI15
aa(lp1081
I458
aI15
aa(lp1082
I459
aI3
aa(lp1083
I470
aI3
aa(lp1084
I471
aI3
aa(lp1085
I472
aI3
aa(lp1086
I473
aI15
aa(lp1087
I474
aI15
aa(lp1088
I475
aI15
aa(lp1089
I476
aI15
aa(lp1090
I477
aI27
aa(lp1091
I478
aI27
aa(lp1092
I479
aI27
aa(lp1093
I480
aI27
aa(lp1094
I481
aI39
aa(lp1095
I482
aI39
aa(lp1096
I483
aI39
aa(lp1097
I484
aI39
aa(lp1098
I540
aI38
aa(lp1099
I541
aI38
aa(lp1100
I542
aI38
aa(lp1101
I543
aI37
aa(lp1102
I544
aI37
aa(lp1103
I545
aI37
aa(lp1104
I546
aI37
aa(lp1105
I547
aI36
aa(lp1106
I548
aI36
aa(lp1107
I549
aI36
aa(lp1108
I550
aI36
aa(lp1109
I551
aI35
aa(lp1110
I552
aI35
aa(lp1111
I553
aI35
aa(lp1112
I554
aI35
aatp1113
Rp1114
sI7
g71
((lp1115
(lp1116
I0
aI7
aa(lp1117
I1
aI7
aa(lp1118
I2
aI7
aa(lp1119
I3
aI7
aa(lp1120
I4
aI7
aa(lp1121
I5
aI7
aa(lp1122
I6
aI7
aa(lp1123
I7
aI7
aa(lp1124
I8
aI7
aa(lp1125
I9
aI7
aa(lp1126
I10
aI7
aa(lp1127
I11
aI7
aa(lp1128
I12
aI7
aa(lp1129
I13
aI7
aa(lp1130
I14
aI7
aa(lp1131
I70
aI7
aa(lp1132
I71
aI7
aa(lp1133
I72
aI7
aa(lp1134
I73
aI7
aa(lp1135
I74
aI7
aa(lp1136
I75
aI7
aa(lp1137
I76
aI7
aa(lp1138
I77
aI7
aa(lp1139
I78
aI7
aa(lp1140
I79
aI7
aa(lp1141
I80
aI7
aa(lp1142
I81
aI7
aa(lp1143
I82
aI7
aa(lp1144
I83
aI7
aa(lp1145
I84
aI7
aa(lp1146
I140
aI6
aa(lp1147
I141
aI6
aa(lp1148
I142
aI17
aa(lp1149
I143
aI16
aa(lp1150
I144
aI16
aa(lp1151
I145
aI16
aa(lp1152
I146
aI27
aa(lp1153
I147
aI26
aa(lp1154
I148
aI37
aa(lp1155
I149
aI37
aa(lp1156
I150
aI37
aa(lp1157
I151
aI47
aa(lp1158
I152
aI47
aa(lp1159
I153
aI47
aa(lp1160
I154
aI47
aa(lp1161
I165
aI47
aa(lp1162
I166
aI47
aa(lp1163
I167
aI47
aa(lp1164
I168
aI48
aa(lp1165
I169
aI48
aa(lp1166
I170
aI48
aa(lp1167
I171
aI48
aa(lp1168
I172
aI49
aa(lp1169
I173
aI49
aa(lp1170
I174
aI49
aa(lp1171
I175
aI49
aa(lp1172
I176
aI50
aa(lp1173
I177
aI50
aa(lp1174
I178
aI50
aa(lp1175
I179
aI50
aa(lp1176
I235
aI39
aa(lp1177
I236
aI39
aa(lp1178
I237
aI39
aa(lp1179
I238
aI39
aa(lp1180
I239
aI28
aa(lp1181
I240
aI28
aa(lp1182
I241
aI28
aa(lp1183
I242
aI29
aa(lp1184
I243
aI29
aa(lp1185
I244
aI18
aa(lp1186
I245
aI18
aa(lp1187
I246
aI18
aa(lp1188
I247
aI18
aa(lp1189
I248
aI18
aa(lp1190
I249
aI8
aa(lp1191
I305
aI7
aa(lp1192
I306
aI7
aa(lp1193
I307
aI7
aa(lp1194
I308
aI18
aa(lp1195
I309
aI18
aa(lp1196
I310
aI18
aa(lp1197
I311
aI18
aa(lp1198
I312
aI29
aa(lp1199
I313
aI29
aa(lp1200
I314
aI29
aa(lp1201
I315
aI29
aa(lp1202
I316
aI40
aa(lp1203
I317
aI40
aa(lp1204
I318
aI40
aa(lp1205
I319
aI40
aa(lp1206
I375
aI40
aa(lp1207
I376
aI40
aa(lp1208
I377
aI40
aa(lp1209
I378
aI40
aa(lp1210
I379
aI40
aa(lp1211
I380
aI40
aa(lp1212
I381
aI40
aa(lp1213
I382
aI41
aa(lp1214
I383
aI41
aa(lp1215
I384
aI41
aa(lp1216
I385
aI41
aa(lp1217
I386
aI41
aa(lp1218
I387
aI41
aa(lp1219
I388
aI41
aa(lp1220
I389
aI53
aa(lp1221
I445
aI41
aa(lp1222
I446
aI41
aa(lp1223
I447
aI40
aa(lp1224
I448
aI40
aa(lp1225
I449
aI29
aa(lp1226
I450
aI29
aa(lp1227
I451
aI28
aa(lp1228
I452
aI28
aa(lp1229
I453
aI28
aa(lp1230
I454
aI16
aa(lp1231
I455
aI16
aa(lp1232
I456
aI16
aa(lp1233
I457
aI15
aa(lp1234
I458
aI15
aa(lp1235
I459
aI4
aa(lp1236
I470
aI4
aa(lp1237
I471
aI4
aa(lp1238
I472
aI4
aa(lp1239
I473
aI15
aa(lp1240
I474
aI16
aa(lp1241
I475
aI16
aa(lp1242
I476
aI16
aa(lp1243
I477
aI27
aa(lp1244
I478
aI27
aa(lp1245
I479
aI28
aa(lp1246
I480
aI28
aa(lp1247
I481
aI39
aa(lp1248
I482
aI39
aa(lp1249
I483
aI39
aa(lp1250
I484
aI40
aa(lp1251
I540
aI28
aa(lp1252
I541
aI28
aa(lp1253
I542
aI28
aa(lp1254
I543
aI28
aa(lp1255
I544
aI28
aa(lp1256
I545
aI28
aa(lp1257
I546
aI28
aa(lp1258
I547
aI16
aa(lp1259
I548
aI16
aa(lp1260
I549
aI16
aa(lp1261
I550
aI16
aa(lp1262
I551
aI16
aa(lp1263
I552
aI16
aa(lp1264
I553
aI16
aa(lp1265
I554
aI15
aatp1266
Rp1267
sI8
g71
((lp1268
(lp1269
I0
aI7
aa(lp1270
I1
aI7
aa(lp1271
I2
aI7
aa(lp1272
I3
aI7
aa(lp1273
I4
aI7
aa(lp1274
I5
aI7
aa(lp1275
I6
aI7
aa(lp1276
I7
aI7
aa(lp1277
I8
aI7
aa(lp1278
I9
aI7
aa(lp1279
I10
aI7
aa(lp1280
I11
aI7
aa(lp1281
I12
aI7
aa(lp1282
I13
aI7
aa(lp1283
I14
aI7
aa(lp1284
I70
aI7
aa(lp1285
I71
aI7
aa(lp1286
I72
aI7
aa(lp1287
I73
aI7
aa(lp1288
I74
aI7
aa(lp1289
I75
aI7
aa(lp1290
I76
aI7
aa(lp1291
I77
aI7
aa(lp1292
I78
aI7
aa(lp1293
I79
aI7
aa(lp1294
I80
aI7
aa(lp1295
I81
aI7
aa(lp1296
I82
aI7
aa(lp1297
I83
aI7
aa(lp1298
I84
aI7
aa(lp1299
I140
aI6
aa(lp1300
I141
aI6
aa(lp1301
I142
aI17
aa(lp1302
I143
aI16
aa(lp1303
I144
aI16
aa(lp1304
I145
aI16
aa(lp1305
I146
aI27
aa(lp1306
I147
aI26
aa(lp1307
I148
aI37
aa(lp1308
I149
aI37
aa(lp1309
I150
aI37
aa(lp1310
I151
aI47
aa(lp1311
I152
aI47
aa(lp1312
I153
aI47
aa(lp1313
I154
aI47
aa(lp1314
I165
aI36
aa(lp1315
I166
aI36
aa(lp1316
I167
aI36
aa(lp1317
I168
aI36
aa(lp1318
I169
aI36
aa(lp1319
I170
aI36
aa(lp1320
I171
aI36
aa(lp1321
I172
aI36
aa(lp1322
I173
aI36
aa(lp1323
I174
aI36
aa(lp1324
I175
aI36
aa(lp1325
I176
aI36
aa(lp1326
I177
aI36
aa(lp1327
I178
aI36
aa(lp1328
I179
aI25
aa(lp1329
I235
aI13
aa(lp1330
I236
aI13
aa(lp1331
I237
aI13
aa(lp1332
I238
aI13
aa(lp1333
I239
aI13
aa(lp1334
I240
aI13
aa(lp1335
I241
aI13
aa(lp1336
I242
aI13
aa(lp1337
I243
aI13
aa(lp1338
I244
aI13
aa(lp1339
I245
aI13
aa(lp1340
I246
aI13
aa(lp1341
I247
aI13
aa(lp1342
I248
aI13
aa(lp1343
I249
aI12
aa(lp1344
I305
aI12
aa(lp1345
I306
aI12
aa(lp1346
I307
aI12
aa(lp1347
I308
aI12
aa(lp1348
I309
aI12
aa(lp1349
I310
aI12
aa(lp1350
I311
aI12
aa(lp1351
I312
aI24
aa(lp1352
I313
aI24
aa(lp1353
I314
aI24
aa(lp1354
I315
aI24
aa(lp1355
I316
aI24
aa(lp1356
I317
aI24
aa(lp1357
I318
aI24
aa(lp1358
I319
aI24
aa(lp1359
I375
aI13
aa(lp1360
I376
aI13
aa(lp1361
I377
aI14
aa(lp1362
I378
aI14
aa(lp1363
I379
aI15
aa(lp1364
I380
aI15
aa(lp1365
I381
aI16
aa(lp1366
I382
aI16
aa(lp1367
I383
aI17
aa(lp1368
I384
aI17
aa(lp1369
I385
aI18
aa(lp1370
I386
aI18
aa(lp1371
I387
aI19
aa(lp1372
I388
aI19
aa(lp1373
I389
aI20
aa(lp1374
I445
aI19
aa(lp1375
I446
aI19
aa(lp1376
I447
aI18
aa(lp1377
I448
aI18
aa(lp1378
I449
aI18
aa(lp1379
I450
aI18
aa(lp1380
I451
aI17
aa(lp1381
I452
aI17
aa(lp1382
I453
aI17
aa(lp1383
I454
aI16
aa(lp1384
I455
aI16
aa(lp1385
I456
aI16
aa(lp1386
I457
aI15
aa(lp1387
I458
aI15
aa(lp1388
I459
aI15
aa(lp1389
I470
aI14
aa(lp1390
I471
aI14
aa(lp1391
I472
aI14
aa(lp1392
I473
aI14
aa(lp1393
I474
aI14
aa(lp1394
I475
aI14
aa(lp1395
I476
aI14
aa(lp1396
I477
aI25
aa(lp1397
I478
aI25
aa(lp1398
I479
aI25
aa(lp1399
I480
aI25
aa(lp1400
I481
aI25
aa(lp1401
I482
aI25
aa(lp1402
I483
aI25
aa(lp1403
I484
aI24
aa(lp1404
I540
aI24
aa(lp1405
I541
aI24
aa(lp1406
I542
aI24
aa(lp1407
I543
aI24
aa(lp1408
I544
aI24
aa(lp1409
I545
aI24
aa(lp1410
I546
aI24
aa(lp1411
I547
aI24
aa(lp1412
I548
aI24
aa(lp1413
I549
aI24
aa(lp1414
I550
aI24
aa(lp1415
I551
aI24
aa(lp1416
I552
aI24
aa(lp1417
I553
aI24
aa(lp1418
I554
aI35
aatp1419
Rp1420
sI9
g71
((lp1421
(lp1422
I0
aI9
aa(lp1423
I1
aI9
aa(lp1424
I2
aI9
aa(lp1425
I3
aI9
aa(lp1426
I4
aI9
aa(lp1427
I5
aI9
aa(lp1428
I6
aI9
aa(lp1429
I7
aI9
aa(lp1430
I8
aI9
aa(lp1431
I9
aI9
aa(lp1432
I10
aI9
aa(lp1433
I11
aI9
aa(lp1434
I12
aI9
aa(lp1435
I13
aI9
aa(lp1436
I14
aI9
aa(lp1437
I70
aI9
aa(lp1438
I71
aI9
aa(lp1439
I72
aI9
aa(lp1440
I73
aI9
aa(lp1441
I74
aI9
aa(lp1442
I75
aI9
aa(lp1443
I76
aI9
aa(lp1444
I77
aI9
aa(lp1445
I78
aI9
aa(lp1446
I79
aI9
aa(lp1447
I80
aI9
aa(lp1448
I81
aI9
aa(lp1449
I82
aI9
aa(lp1450
I83
aI9
aa(lp1451
I84
aI9
aa(lp1452
I140
aI8
aa(lp1453
I141
aI7
aa(lp1454
I142
aI7
aa(lp1455
I143
aI6
aa(lp1456
I144
aI6
aa(lp1457
I145
aI5
aa(lp1458
I146
aI5
aa(lp1459
I147
aI4
aa(lp1460
I148
aI4
aa(lp1461
I149
aI3
aa(lp1462
I150
aI3
aa(lp1463
I151
aI2
aa(lp1464
I152
aI2
aa(lp1465
I153
aI1
aa(lp1466
I154
aI1
aa(lp1467
I165
aI1
aa(lp1468
I166
aI1
aa(lp1469
I167
aI1
aa(lp1470
I168
aI12
aa(lp1471
I169
aI12
aa(lp1472
I170
aI12
aa(lp1473
I171
aI12
aa(lp1474
I172
aI23
aa(lp1475
I173
aI23
aa(lp1476
I174
aI23
aa(lp1477
I175
aI23
aa(lp1478
I176
aI34
aa(lp1479
I177
aI34
aa(lp1480
I178
aI34
aa(lp1481
I179
aI34
aa(lp1482
I235
aI23
aa(lp1483
I236
aI23
aa(lp1484
I237
aI23
aa(lp1485
I238
aI23
aa(lp1486
I239
aI23
aa(lp1487
I240
aI23
aa(lp1488
I241
aI23
aa(lp1489
I242
aI12
aa(lp1490
I243
aI12
aa(lp1491
I244
aI12
aa(lp1492
I245
aI12
aa(lp1493
I246
aI12
aa(lp1494
I247
aI12
aa(lp1495
I248
aI12
aa(lp1496
I249
aI12
aa(lp1497
I305
aI12
aa(lp1498
I306
aI12
aa(lp1499
I307
aI12
aa(lp1500
I308
aI12
aa(lp1501
I309
aI12
aa(lp1502
I310
aI23
aa(lp1503
I311
aI23
aa(lp1504
I312
aI23
aa(lp1505
I313
aI23
aa(lp1506
I314
aI34
aa(lp1507
I315
aI34
aa(lp1508
I316
aI34
aa(lp1509
I317
aI34
aa(lp1510
I318
aI34
aa(lp1511
I319
aI45
aa(lp1512
I375
aI45
aa(lp1513
I376
aI45
aa(lp1514
I377
aI45
aa(lp1515
I378
aI46
aa(lp1516
I379
aI46
aa(lp1517
I380
aI47
aa(lp1518
I381
aI47
aa(lp1519
I382
aI47
aa(lp1520
I383
aI48
aa(lp1521
I384
aI48
aa(lp1522
I385
aI48
aa(lp1523
I386
aI48
aa(lp1524
I387
aI49
aa(lp1525
I388
aI49
aa(lp1526
I389
aI49
aa(lp1527
I445
aI37
aa(lp1528
I446
aI37
aa(lp1529
I447
aI37
aa(lp1530
I448
aI37
aa(lp1531
I449
aI26
aa(lp1532
I450
aI26
aa(lp1533
I451
aI26
aa(lp1534
I452
aI26
aa(lp1535
I453
aI26
aa(lp1536
I454
aI15
aa(lp1537
I455
aI15
aa(lp1538
I456
aI15
aa(lp1539
I457
aI15
aa(lp1540
I458
aI15
aa(lp1541
I459
aI4
aa(lp1542
I470
aI3
aa(lp1543
I471
aI3
aa(lp1544
I472
aI3
aa(lp1545
I473
aI14
aa(lp1546
I474
aI13
aa(lp1547
I475
aI13
aa(lp1548
I476
aI13
aa(lp1549
I477
aI24
aa(lp1550
I478
aI24
aa(lp1551
I479
aI23
aa(lp1552
I480
aI23
aa(lp1553
I481
aI34
aa(lp1554
I482
aI34
aa(lp1555
I483
aI34
aa(lp1556
I484
aI33
aa(lp1557
I540
aI33
aa(lp1558
I541
aI34
aa(lp1559
I542
aI35
aa(lp1560
I543
aI35
aa(lp1561
I544
aI36
aa(lp1562
I545
aI36
aa(lp1563
I546
aI37
aa(lp1564
I547
aI38
aa(lp1565
I548
aI39
aa(lp1566
I549
aI39
aa(lp1567
I550
aI40
aa(lp1568
I551
aI41
aa(lp1569
I552
aI41
aa(lp1570
I553
aI42
aa(lp1571
I554
aI53
aatp1572
Rp1573
sI10
g71
((lp1574
(lp1575
I0
aI9
aa(lp1576
I1
aI9
aa(lp1577
I2
aI9
aa(lp1578
I3
aI9
aa(lp1579
I4
aI9
aa(lp1580
I5
aI8
aa(lp1581
I6
aI8
aa(lp1582
I7
aI8
aa(lp1583
I8
aI8
aa(lp1584
I9
aI8
aa(lp1585
I10
aI7
aa(lp1586
I11
aI7
aa(lp1587
I12
aI7
aa(lp1588
I13
aI7
aa(lp1589
I14
aI7
aa(lp1590
I70
aI7
aa(lp1591
I71
aI7
aa(lp1592
I72
aI7
aa(lp1593
I73
aI7
aa(lp1594
I74
aI7
aa(lp1595
I75
aI7
aa(lp1596
I76
aI7
aa(lp1597
I77
aI7
aa(lp1598
I78
aI7
aa(lp1599
I79
aI7
aa(lp1600
I80
aI7
aa(lp1601
I81
aI7
aa(lp1602
I82
aI7
aa(lp1603
I83
aI7
aa(lp1604
I84
aI7
aa(lp1605
I140
aI6
aa(lp1606
I141
aI6
aa(lp1607
I142
aI17
aa(lp1608
I143
aI16
aa(lp1609
I144
aI16
aa(lp1610
I145
aI16
aa(lp1611
I146
aI27
aa(lp1612
I147
aI26
aa(lp1613
I148
aI37
aa(lp1614
I149
aI37
aa(lp1615
I150
aI37
aa(lp1616
I151
aI47
aa(lp1617
I152
aI47
aa(lp1618
I153
aI47
aa(lp1619
I154
aI47
aa(lp1620
I165
aI46
aa(lp1621
I166
aI46
aa(lp1622
I167
aI46
aa(lp1623
I168
aI46
aa(lp1624
I169
aI46
aa(lp1625
I170
aI46
aa(lp1626
I171
aI46
aa(lp1627
I172
aI45
aa(lp1628
I173
aI45
aa(lp1629
I174
aI45
aa(lp1630
I175
aI45
aa(lp1631
I176
aI45
aa(lp1632
I177
aI45
aa(lp1633
I178
aI45
aa(lp1634
I179
aI45
aa(lp1635
I235
aI34
aa(lp1636
I236
aI34
aa(lp1637
I237
aI35
aa(lp1638
I238
aI35
aa(lp1639
I239
aI25
aa(lp1640
I240
aI25
aa(lp1641
I241
aI26
aa(lp1642
I242
aI26
aa(lp1643
I243
aI27
aa(lp1644
I244
aI16
aa(lp1645
I245
aI17
aa(lp1646
I246
aI17
aa(lp1647
I247
aI18
aa(lp1648
I248
aI18
aa(lp1649
I249
aI8
aa(lp1650
I305
aI7
aa(lp1651
I306
aI7
aa(lp1652
I307
aI6
aa(lp1653
I308
aI17
aa(lp1654
I309
aI16
aa(lp1655
I310
aI16
aa(lp1656
I311
aI15
aa(lp1657
I312
aI26
aa(lp1658
I313
aI25
aa(lp1659
I314
aI25
aa(lp1660
I315
aI24
aa(lp1661
I316
aI35
aa(lp1662
I317
aI34
aa(lp1663
I318
aI34
aa(lp1664
I319
aI33
aa(lp1665
I375
aI33
aa(lp1666
I376
aI34
aa(lp1667
I377
aI34
aa(lp1668
I378
aI35
aa(lp1669
I379
aI36
aa(lp1670
I380
aI36
aa(lp1671
I381
aI37
aa(lp1672
I382
aI37
aa(lp1673
I383
aI38
aa(lp1674
I384
aI38
aa(lp1675
I385
aI39
aa(lp1676
I386
aI40
aa(lp1677
I387
aI40
aa(lp1678
I388
aI41
aa(lp1679
I389
aI52
aa(lp1680
I445
aI41
aa(lp1681
I446
aI41
aa(lp1682
I447
aI41
aa(lp1683
I448
aI41
aa(lp1684
I449
aI30
aa(lp1685
I450
aI30
aa(lp1686
I451
aI30
aa(lp1687
I452
aI30
aa(lp1688
I453
aI30
aa(lp1689
I454
aI19
aa(lp1690
I455
aI19
aa(lp1691
I456
aI19
aa(lp1692
I457
aI19
aa(lp1693
I458
aI19
aa(lp1694
I459
aI8
aa(lp1695
I470
aI7
aa(lp1696
I471
aI7
aa(lp1697
I472
aI6
aa(lp1698
I473
aI17
aa(lp1699
I474
aI16
aa(lp1700
I475
aI16
aa(lp1701
I476
aI15
aa(lp1702
I477
aI26
aa(lp1703
I478
aI25
aa(lp1704
I479
aI25
aa(lp1705
I480
aI24
aa(lp1706
I481
aI35
aa(lp1707
I482
aI34
aa(lp1708
I483
aI34
aa(lp1709
I484
aI33
aa(lp1710
I540
aI22
aa(lp1711
I541
aI22
aa(lp1712
I542
aI23
aa(lp1713
I543
aI23
aa(lp1714
I544
aI23
aa(lp1715
I545
aI23
aa(lp1716
I546
aI24
aa(lp1717
I547
aI13
aa(lp1718
I548
aI14
aa(lp1719
I549
aI14
aa(lp1720
I550
aI14
aa(lp1721
I551
aI15
aa(lp1722
I552
aI15
aa(lp1723
I553
aI15
aa(lp1724
I554
aI15
aatp1725
Rp1726
sI11
g71
((lp1727
(lp1728
I0
aI11
aa(lp1729
I1
aI12
aa(lp1730
I2
aI12
aa(lp1731
I3
aI13
aa(lp1732
I4
aI14
aa(lp1733
I5
aI14
aa(lp1734
I6
aI15
aa(lp1735
I7
aI15
aa(lp1736
I8
aI16
aa(lp1737
I9
aI16
aa(lp1738
I10
aI17
aa(lp1739
I11
aI18
aa(lp1740
I12
aI18
aa(lp1741
I13
aI19
aa(lp1742
I14
aI19
aa(lp1743
I70
aI19
aa(lp1744
I71
aI19
aa(lp1745
I72
aI19
aa(lp1746
I73
aI19
aa(lp1747
I74
aI19
aa(lp1748
I75
aI19
aa(lp1749
I76
aI19
aa(lp1750
I77
aI19
aa(lp1751
I78
aI19
aa(lp1752
I79
aI19
aa(lp1753
I80
aI19
aa(lp1754
I81
aI19
aa(lp1755
I82
aI19
aa(lp1756
I83
aI19
aa(lp1757
I84
aI19
aa(lp1758
I140
aI18
aa(lp1759
I141
aI18
aa(lp1760
I142
aI18
aa(lp1761
I143
aI28
aa(lp1762
I144
aI28
aa(lp1763
I145
aI28
aa(lp1764
I146
aI27
aa(lp1765
I147
aI38
aa(lp1766
I148
aI38
aa(lp1767
I149
aI37
aa(lp1768
I150
aI37
aa(lp1769
I151
aI48
aa(lp1770
I152
aI47
aa(lp1771
I153
aI47
aa(lp1772
I154
aI47
aa(lp1773
I165
aI46
aa(lp1774
I166
aI46
aa(lp1775
I167
aI46
aa(lp1776
I168
aI46
aa(lp1777
I169
aI46
aa(lp1778
I170
aI46
aa(lp1779
I171
aI46
aa(lp1780
I172
aI46
aa(lp1781
I173
aI46
aa(lp1782
I174
aI46
aa(lp1783
I175
aI46
aa(lp1784
I176
aI46
aa(lp1785
I177
aI46
aa(lp1786
I178
aI46
aa(lp1787
I179
aI45
aa(lp1788
I235
aI34
aa(lp1789
I236
aI34
aa(lp1790
I237
aI34
aa(lp1791
I238
aI34
aa(lp1792
I239
aI23
aa(lp1793
I240
aI23
aa(lp1794
I241
aI23
aa(lp1795
I242
aI23
aa(lp1796
I243
aI23
aa(lp1797
I244
aI12
aa(lp1798
I245
aI12
aa(lp1799
I246
aI12
aa(lp1800
I247
aI12
aa(lp1801
I248
aI12
aa(lp1802
I249
aI1
aa(lp1803
I305
aI1
aa(lp1804
I306
aI1
aa(lp1805
I307
aI1
aa(lp1806
I308
aI12
aa(lp1807
I309
aI12
aa(lp1808
I310
aI12
aa(lp1809
I311
aI12
aa(lp1810
I312
aI23
aa(lp1811
I313
aI23
aa(lp1812
I314
aI23
aa(lp1813
I315
aI23
aa(lp1814
I316
aI34
aa(lp1815
I317
aI34
aa(lp1816
I318
aI34
aa(lp1817
I319
aI34
aa(lp1818
I375
aI23
aa(lp1819
I376
aI24
aa(lp1820
I377
aI24
aa(lp1821
I378
aI25
aa(lp1822
I379
aI25
aa(lp1823
I380
aI26
aa(lp1824
I381
aI26
aa(lp1825
I382
aI16
aa(lp1826
I383
aI16
aa(lp1827
I384
aI17
aa(lp1828
I385
aI17
aa(lp1829
I386
aI18
aa(lp1830
I387
aI18
aa(lp1831
I388
aI19
aa(lp1832
I389
aI19
aa(lp1833
I445
aI18
aa(lp1834
I446
aI18
aa(lp1835
I447
aI18
aa(lp1836
I448
aI17
aa(lp1837
I449
aI17
aa(lp1838
I450
aI17
aa(lp1839
I451
aI17
aa(lp1840
I452
aI16
aa(lp1841
I453
aI16
aa(lp1842
I454
aI16
aa(lp1843
I455
aI16
aa(lp1844
I456
aI15
aa(lp1845
I457
aI15
aa(lp1846
I458
aI15
aa(lp1847
I459
aI15
aa(lp1848
I470
aI14
aa(lp1849
I471
aI14
aa(lp1850
I472
aI14
aa(lp1851
I473
aI14
aa(lp1852
I474
aI14
aa(lp1853
I475
aI25
aa(lp1854
I476
aI25
aa(lp1855
I477
aI24
aa(lp1856
I478
aI24
aa(lp1857
I479
aI35
aa(lp1858
I480
aI35
aa(lp1859
I481
aI35
aa(lp1860
I482
aI35
aa(lp1861
I483
aI35
aa(lp1862
I484
aI46
aa(lp1863
I540
aI35
aa(lp1864
I541
aI35
aa(lp1865
I542
aI35
aa(lp1866
I543
aI35
aa(lp1867
I544
aI35
aa(lp1868
I545
aI35
aa(lp1869
I546
aI35
aa(lp1870
I547
aI35
aa(lp1871
I548
aI35
aa(lp1872
I549
aI35
aa(lp1873
I550
aI35
aa(lp1874
I551
aI35
aa(lp1875
I552
aI35
aa(lp1876
I553
aI35
aa(lp1877
I554
aI24
aatp1878
Rp1879
sI12
g71
((lp1880
(lp1881
I0
aI12
aa(lp1882
I1
aI13
aa(lp1883
I2
aI13
aa(lp1884
I3
aI14
aa(lp1885
I4
aI15
aa(lp1886
I5
aI15
aa(lp1887
I6
aI16
aa(lp1888
I7
aI16
aa(lp1889
I8
aI17
aa(lp1890
I9
aI17
aa(lp1891
I10
aI18
aa(lp1892
I11
aI19
aa(lp1893
I12
aI19
aa(lp1894
I13
aI20
aa(lp1895
I14
aI20
aa(lp1896
I70
aI20
aa(lp1897
I71
aI20
aa(lp1898
I72
aI20
aa(lp1899
I73
aI20
aa(lp1900
I74
aI20
aa(lp1901
I75
aI20
aa(lp1902
I76
aI20
aa(lp1903
I77
aI20
aa(lp1904
I78
aI20
aa(lp1905
I79
aI20
aa(lp1906
I80
aI20
aa(lp1907
I81
aI20
aa(lp1908
I82
aI20
aa(lp1909
I83
aI20
aa(lp1910
I84
aI20
aa(lp1911
I140
aI19
aa(lp1912
I141
aI19
aa(lp1913
I142
aI18
aa(lp1914
I143
aI29
aa(lp1915
I144
aI28
aa(lp1916
I145
aI28
aa(lp1917
I146
aI28
aa(lp1918
I147
aI38
aa(lp1919
I148
aI38
aa(lp1920
I149
aI37
aa(lp1921
I150
aI37
aa(lp1922
I151
aI48
aa(lp1923
I152
aI47
aa(lp1924
I153
aI47
aa(lp1925
I154
aI46
aa(lp1926
I165
aI35
aa(lp1927
I166
aI35
aa(lp1928
I167
aI35
aa(lp1929
I168
aI35
aa(lp1930
I169
aI35
aa(lp1931
I170
aI35
aa(lp1932
I171
aI35
aa(lp1933
I172
aI35
aa(lp1934
I173
aI35
aa(lp1935
I174
aI35
aa(lp1936
I175
aI35
aa(lp1937
I176
aI35
aa(lp1938
I177
aI35
aa(lp1939
I178
aI35
aa(lp1940
I179
aI25
aa(lp1941
I235
aI13
aa(lp1942
I236
aI13
aa(lp1943
I237
aI13
aa(lp1944
I238
aI13
aa(lp1945
I239
aI13
aa(lp1946
I240
aI13
aa(lp1947
I241
aI13
aa(lp1948
I242
aI2
aa(lp1949
I243
aI2
aa(lp1950
I244
aI2
aa(lp1951
I245
aI2
aa(lp1952
I246
aI2
aa(lp1953
I247
aI2
aa(lp1954
I248
aI2
aa(lp1955
I249
aI1
aa(lp1956
I305
aI1
aa(lp1957
I306
aI1
aa(lp1958
I307
aI1
aa(lp1959
I308
aI1
aa(lp1960
I309
aI12
aa(lp1961
I310
aI12
aa(lp1962
I311
aI12
aa(lp1963
I312
aI13
aa(lp1964
I313
aI13
aa(lp1965
I314
aI13
aa(lp1966
I315
aI24
aa(lp1967
I316
aI24
aa(lp1968
I317
aI24
aa(lp1969
I318
aI24
aa(lp1970
I319
aI35
aa(lp1971
I375
aI35
aa(lp1972
I376
aI35
aa(lp1973
I377
aI35
aa(lp1974
I378
aI36
aa(lp1975
I379
aI36
aa(lp1976
I380
aI36
aa(lp1977
I381
aI36
aa(lp1978
I382
aI37
aa(lp1979
I383
aI37
aa(lp1980
I384
aI37
aa(lp1981
I385
aI37
aa(lp1982
I386
aI38
aa(lp1983
I387
aI38
aa(lp1984
I388
aI38
aa(lp1985
I389
aI49
aa(lp1986
I445
aI37
aa(lp1987
I446
aI37
aa(lp1988
I447
aI37
aa(lp1989
I448
aI37
aa(lp1990
I449
aI26
aa(lp1991
I450
aI26
aa(lp1992
I451
aI26
aa(lp1993
I452
aI26
aa(lp1994
I453
aI26
aa(lp1995
I454
aI15
aa(lp1996
I455
aI15
aa(lp1997
I456
aI15
aa(lp1998
I457
aI15
aa(lp1999
I458
aI15
aa(lp2000
I459
aI4
aa(lp2001
I470
aI3
aa(lp2002
I471
aI3
aa(lp2003
I472
aI3
aa(lp2004
I473
aI3
aa(lp2005
I474
aI14
aa(lp2006
I475
aI14
aa(lp2007
I476
aI14
aa(lp2008
I477
aI14
aa(lp2009
I478
aI14
aa(lp2010
I479
aI14
aa(lp2011
I480
aI25
aa(lp2012
I481
aI25
aa(lp2013
I482
aI25
aa(lp2014
I483
aI25
aa(lp2015
I484
aI35
aa(lp2016
I554
aI35
aatp2017
Rp2018
sI13
g71
((lp2019
(lp2020
I0
aI13
aa(lp2021
I1
aI14
aa(lp2022
I2
aI14
aa(lp2023
I3
aI15
aa(lp2024
I4
aI15
aa(lp2025
I5
aI16
aa(lp2026
I6
aI16
aa(lp2027
I7
aI17
aa(lp2028
I8
aI17
aa(lp2029
I9
aI18
aa(lp2030
I10
aI18
aa(lp2031
I11
aI19
aa(lp2032
I12
aI19
aa(lp2033
I13
aI20
aa(lp2034
I14
aI20
aa(lp2035
I70
aI20
aa(lp2036
I71
aI20
aa(lp2037
I72
aI20
aa(lp2038
I73
aI20
aa(lp2039
I74
aI20
aa(lp2040
I75
aI20
aa(lp2041
I76
aI20
aa(lp2042
I77
aI20
aa(lp2043
I78
aI20
aa(lp2044
I79
aI20
aa(lp2045
I80
aI20
aa(lp2046
I81
aI20
aa(lp2047
I82
aI20
aa(lp2048
I83
aI20
aa(lp2049
I84
aI20
aa(lp2050
I140
aI19
aa(lp2051
I141
aI19
aa(lp2052
I142
aI18
aa(lp2053
I143
aI29
aa(lp2054
I144
aI28
aa(lp2055
I145
aI28
aa(lp2056
I146
aI28
aa(lp2057
I147
aI38
aa(lp2058
I148
aI38
aa(lp2059
I149
aI37
aa(lp2060
I150
aI37
aa(lp2061
I151
aI48
aa(lp2062
I152
aI47
aa(lp2063
I153
aI47
aa(lp2064
I154
aI46
aa(lp2065
I165
aI35
aa(lp2066
I166
aI35
aa(lp2067
I167
aI35
aa(lp2068
I168
aI35
aa(lp2069
I169
aI36
aa(lp2070
I170
aI36
aa(lp2071
I171
aI36
aa(lp2072
I172
aI36
aa(lp2073
I173
aI36
aa(lp2074
I174
aI37
aa(lp2075
I175
aI37
aa(lp2076
I176
aI37
aa(lp2077
I177
aI37
aa(lp2078
I178
aI37
aa(lp2079
I179
aI27
aa(lp2080
I235
aI16
aa(lp2081
I236
aI16
aa(lp2082
I237
aI16
aa(lp2083
I238
aI16
aa(lp2084
I239
aI17
aa(lp2085
I240
aI17
aa(lp2086
I241
aI17
aa(lp2087
I242
aI17
aa(lp2088
I243
aI17
aa(lp2089
I244
aI18
aa(lp2090
I245
aI18
aa(lp2091
I246
aI18
aa(lp2092
I247
aI18
aa(lp2093
I248
aI18
aa(lp2094
I249
aI19
aa(lp2095
I305
aI18
aa(lp2096
I306
aI18
aa(lp2097
I307
aI18
aa(lp2098
I308
aI18
aa(lp2099
I309
aI17
aa(lp2100
I310
aI17
aa(lp2101
I311
aI17
aa(lp2102
I312
aI28
aa(lp2103
I313
aI28
aa(lp2104
I314
aI27
aa(lp2105
I315
aI27
aa(lp2106
I316
aI27
aa(lp2107
I317
aI27
aa(lp2108
I318
aI27
aa(lp2109
I319
aI26
aa(lp2110
I375
aI26
aa(lp2111
I376
aI26
aa(lp2112
I377
aI26
aa(lp2113
I378
aI26
aa(lp2114
I379
aI26
aa(lp2115
I380
aI26
aa(lp2116
I381
aI26
aa(lp2117
I382
aI38
aa(lp2118
I383
aI38
aa(lp2119
I384
aI38
aa(lp2120
I385
aI38
aa(lp2121
I386
aI38
aa(lp2122
I387
aI38
aa(lp2123
I388
aI38
aa(lp2124
I389
aI39
aa(lp2125
I445
aI27
aa(lp2126
I446
aI27
aa(lp2127
I447
aI27
aa(lp2128
I448
aI27
aa(lp2129
I449
aI27
aa(lp2130
I450
aI27
aa(lp2131
I451
aI27
aa(lp2132
I452
aI15
aa(lp2133
I453
aI15
aa(lp2134
I454
aI15
aa(lp2135
I455
aI15
aa(lp2136
I456
aI15
aa(lp2137
I457
aI15
aa(lp2138
I458
aI15
aa(lp2139
I459
aI14
aa(lp2140
I470
aI14
aa(lp2141
I471
aI14
aa(lp2142
I472
aI14
aa(lp2143
I473
aI14
aa(lp2144
I474
aI14
aa(lp2145
I475
aI14
aa(lp2146
I476
aI14
aa(lp2147
I477
aI26
aa(lp2148
I478
aI26
aa(lp2149
I479
aI26
aa(lp2150
I480
aI26
aa(lp2151
I481
aI26
aa(lp2152
I482
aI26
aa(lp2153
I483
aI26
aa(lp2154
I484
aI27
aa(lp2155
I540
aI27
aa(lp2156
I541
aI27
aa(lp2157
I542
aI27
aa(lp2158
I543
aI28
aa(lp2159
I544
aI28
aa(lp2160
I545
aI28
aa(lp2161
I546
aI29
aa(lp2162
I547
aI40
aa(lp2163
I548
aI40
aa(lp2164
I549
aI41
aa(lp2165
I550
aI41
aa(lp2166
I551
aI41
aa(lp2167
I552
aI42
aa(lp2168
I553
aI42
aa(lp2169
I554
aI43
aatp2170
Rp2171
sI14
g71
((lp2172
(lp2173
I0
aI14
aa(lp2174
I1
aI14
aa(lp2175
I2
aI14
aa(lp2176
I3
aI15
aa(lp2177
I4
aI15
aa(lp2178
I5
aI15
aa(lp2179
I6
aI15
aa(lp2180
I7
aI16
aa(lp2181
I8
aI16
aa(lp2182
I9
aI16
aa(lp2183
I10
aI16
aa(lp2184
I11
aI17
aa(lp2185
I12
aI17
aa(lp2186
I13
aI17
aa(lp2187
I14
aI17
aa(lp2188
I70
aI17
aa(lp2189
I71
aI17
aa(lp2190
I72
aI17
aa(lp2191
I73
aI17
aa(lp2192
I74
aI17
aa(lp2193
I75
aI17
aa(lp2194
I76
aI17
aa(lp2195
I77
aI17
aa(lp2196
I78
aI17
aa(lp2197
I79
aI17
aa(lp2198
I80
aI17
aa(lp2199
I81
aI17
aa(lp2200
I82
aI17
aa(lp2201
I83
aI17
aa(lp2202
I84
aI17
aa(lp2203
I140
aI16
aa(lp2204
I141
aI16
aa(lp2205
I142
aI16
aa(lp2206
I143
aI16
aa(lp2207
I144
aI16
aa(lp2208
I145
aI16
aa(lp2209
I146
aI16
aa(lp2210
I147
aI15
aa(lp2211
I148
aI15
aa(lp2212
I149
aI15
aa(lp2213
I150
aI15
aa(lp2214
I151
aI15
aa(lp2215
I152
aI15
aa(lp2216
I153
aI15
aa(lp2217
I154
aI14
aa(lp2218
I165
aI14
aa(lp2219
I166
aI14
aa(lp2220
I167
aI14
aa(lp2221
I168
aI14
aa(lp2222
I169
aI14
aa(lp2223
I170
aI14
aa(lp2224
I171
aI14
aa(lp2225
I172
aI26
aa(lp2226
I173
aI26
aa(lp2227
I174
aI26
aa(lp2228
I175
aI26
aa(lp2229
I176
aI26
aa(lp2230
I177
aI26
aa(lp2231
I178
aI26
aa(lp2232
I179
aI27
aa(lp2233
I235
aI15
aa(lp2234
I236
aI15
aa(lp2235
I237
aI15
aa(lp2236
I238
aI15
aa(lp2237
I239
aI14
aa(lp2238
I240
aI14
aa(lp2239
I241
aI14
aa(lp2240
I242
aI3
aa(lp2241
I243
aI3
aa(lp2242
I244
aI2
aa(lp2243
I245
aI2
aa(lp2244
I246
aI2
aa(lp2245
I247
aI2
aa(lp2246
I248
aI2
aa(lp2247
I249
aI1
aa(lp2248
I305
aI1
aa(lp2249
I306
aI1
aa(lp2250
I307
aI1
aa(lp2251
I308
aI2
aa(lp2252
I309
aI13
aa(lp2253
I310
aI13
aa(lp2254
I311
aI13
aa(lp2255
I312
aI14
aa(lp2256
I313
aI14
aa(lp2257
I314
aI14
aa(lp2258
I315
aI25
aa(lp2259
I316
aI26
aa(lp2260
I317
aI26
aa(lp2261
I318
aI26
aa(lp2262
I319
aI37
aa(lp2263
I375
aI37
aa(lp2264
I376
aI37
aa(lp2265
I377
aI37
aa(lp2266
I378
aI38
aa(lp2267
I379
aI38
aa(lp2268
I380
aI38
aa(lp2269
I381
aI39
aa(lp2270
I382
aI39
aa(lp2271
I383
aI39
aa(lp2272
I384
aI40
aa(lp2273
I385
aI40
aa(lp2274
I386
aI40
aa(lp2275
I387
aI41
aa(lp2276
I388
aI41
aa(lp2277
I389
aI52
aa(lp2278
I445
aI41
aa(lp2279
I446
aI41
aa(lp2280
I447
aI41
aa(lp2281
I448
aI41
aa(lp2282
I449
aI30
aa(lp2283
I450
aI30
aa(lp2284
I451
aI30
aa(lp2285
I452
aI30
aa(lp2286
I453
aI30
aa(lp2287
I454
aI19
aa(lp2288
I455
aI19
aa(lp2289
I456
aI19
aa(lp2290
I457
aI19
aa(lp2291
I458
aI19
aa(lp2292
I459
aI8
aa(lp2293
I470
aI7
aa(lp2294
I471
aI7
aa(lp2295
I472
aI7
aa(lp2296
I473
aI7
aa(lp2297
I474
aI17
aa(lp2298
I475
aI17
aa(lp2299
I476
aI17
aa(lp2300
I477
aI17
aa(lp2301
I478
aI17
aa(lp2302
I479
aI16
aa(lp2303
I480
aI27
aa(lp2304
I481
aI27
aa(lp2305
I482
aI27
aa(lp2306
I483
aI27
aa(lp2307
I484
aI37
aa(lp2308
I540
aI37
aa(lp2309
I541
aI37
aa(lp2310
I542
aI38
aa(lp2311
I543
aI38
aa(lp2312
I544
aI39
aa(lp2313
I545
aI39
aa(lp2314
I546
aI39
aa(lp2315
I547
aI40
aa(lp2316
I548
aI40
aa(lp2317
I549
aI41
aa(lp2318
I550
aI41
aa(lp2319
I551
aI41
aa(lp2320
I552
aI42
aa(lp2321
I553
aI42
aa(lp2322
I554
aI54
aatp2323
Rp2324
sI15
g71
((lp2325
(lp2326
I0
aI15
aa(lp2327
I1
aI15
aa(lp2328
I2
aI15
aa(lp2329
I3
aI16
aa(lp2330
I4
aI16
aa(lp2331
I5
aI16
aa(lp2332
I6
aI17
aa(lp2333
I7
aI17
aa(lp2334
I8
aI17
aa(lp2335
I9
aI18
aa(lp2336
I10
aI18
aa(lp2337
I11
aI18
aa(lp2338
I12
aI19
aa(lp2339
I13
aI19
aa(lp2340
I14
aI19
aa(lp2341
I70
aI19
aa(lp2342
I71
aI19
aa(lp2343
I72
aI19
aa(lp2344
I73
aI19
aa(lp2345
I74
aI19
aa(lp2346
I75
aI19
aa(lp2347
I76
aI19
aa(lp2348
I77
aI19
aa(lp2349
I78
aI19
aa(lp2350
I79
aI19
aa(lp2351
I80
aI19
aa(lp2352
I81
aI19
aa(lp2353
I82
aI19
aa(lp2354
I83
aI19
aa(lp2355
I84
aI19
aa(lp2356
I140
aI18
aa(lp2357
I141
aI18
aa(lp2358
I142
aI18
aa(lp2359
I143
aI28
aa(lp2360
I144
aI28
aa(lp2361
I145
aI28
aa(lp2362
I146
aI27
aa(lp2363
I147
aI38
aa(lp2364
I148
aI38
aa(lp2365
I149
aI37
aa(lp2366
I150
aI37
aa(lp2367
I151
aI48
aa(lp2368
I152
aI47
aa(lp2369
I153
aI47
aa(lp2370
I154
aI47
aa(lp2371
I165
aI46
aa(lp2372
I166
aI46
aa(lp2373
I167
aI46
aa(lp2374
I168
aI46
aa(lp2375
I169
aI46
aa(lp2376
I170
aI46
aa(lp2377
I171
aI46
aa(lp2378
I172
aI46
aa(lp2379
I173
aI46
aa(lp2380
I174
aI46
aa(lp2381
I175
aI46
aa(lp2382
I176
aI46
aa(lp2383
I177
aI46
aa(lp2384
I178
aI46
aa(lp2385
I179
aI45
aa(lp2386
I235
aI34
aa(lp2387
I236
aI34
aa(lp2388
I237
aI34
aa(lp2389
I238
aI23
aa(lp2390
I239
aI23
aa(lp2391
I240
aI23
aa(lp2392
I241
aI23
aa(lp2393
I242
aI12
aa(lp2394
I243
aI12
aa(lp2395
I244
aI12
aa(lp2396
I245
aI12
aa(lp2397
I246
aI1
aa(lp2398
I247
aI1
aa(lp2399
I248
aI1
aa(lp2400
I249
aI1
aa(lp2401
I305
aI1
aa(lp2402
I306
aI1
aa(lp2403
I307
aI1
aa(lp2404
I308
aI12
aa(lp2405
I309
aI12
aa(lp2406
I310
aI12
aa(lp2407
I311
aI12
aa(lp2408
I312
aI23
aa(lp2409
I313
aI23
aa(lp2410
I314
aI23
aa(lp2411
I315
aI23
aa(lp2412
I316
aI34
aa(lp2413
I317
aI34
aa(lp2414
I318
aI34
aa(lp2415
I319
aI34
aa(lp2416
I375
aI34
aa(lp2417
I376
aI34
aa(lp2418
I377
aI34
aa(lp2419
I378
aI35
aa(lp2420
I379
aI35
aa(lp2421
I380
aI36
aa(lp2422
I381
aI36
aa(lp2423
I382
aI36
aa(lp2424
I383
aI37
aa(lp2425
I384
aI37
aa(lp2426
I385
aI37
aa(lp2427
I386
aI37
aa(lp2428
I387
aI38
aa(lp2429
I388
aI38
aa(lp2430
I389
aI49
aa(lp2431
I445
aI37
aa(lp2432
I446
aI37
aa(lp2433
I447
aI37
aa(lp2434
I448
aI37
aa(lp2435
I449
aI26
aa(lp2436
I450
aI26
aa(lp2437
I451
aI26
aa(lp2438
I452
aI26
aa(lp2439
I453
aI26
aa(lp2440
I454
aI15
aa(lp2441
I455
aI15
aa(lp2442
I456
aI15
aa(lp2443
I457
aI15
aa(lp2444
I458
aI15
aa(lp2445
I459
aI4
aa(lp2446
I470
aI3
aa(lp2447
I471
aI3
aa(lp2448
I472
aI3
aa(lp2449
I473
aI14
aa(lp2450
I474
aI14
aa(lp2451
I475
aI14
aa(lp2452
I476
aI14
aa(lp2453
I477
aI24
aa(lp2454
I478
aI24
aa(lp2455
I479
aI24
aa(lp2456
I480
aI24
aa(lp2457
I481
aI35
aa(lp2458
I482
aI35
aa(lp2459
I483
aI35
aa(lp2460
I484
aI35
aa(lp2461
I540
aI24
aa(lp2462
I541
aI24
aa(lp2463
I542
aI24
aa(lp2464
I543
aI24
aa(lp2465
I544
aI25
aa(lp2466
I545
aI25
aa(lp2467
I546
aI25
aa(lp2468
I547
aI14
aa(lp2469
I548
aI14
aa(lp2470
I549
aI15
aa(lp2471
I550
aI15
aa(lp2472
I551
aI15
aa(lp2473
I552
aI15
aa(lp2474
I553
aI15
aa(lp2475
I554
aI16
aatp2476
Rp2477
sI16
g71
((lp2478
(lp2479
I0
aI16
aa(lp2480
I1
aI16
aa(lp2481
I2
aI16
aa(lp2482
I3
aI16
aa(lp2483
I4
aI16
aa(lp2484
I5
aI16
aa(lp2485
I6
aI16
aa(lp2486
I7
aI17
aa(lp2487
I8
aI17
aa(lp2488
I9
aI17
aa(lp2489
I10
aI17
aa(lp2490
I11
aI17
aa(lp2491
I12
aI17
aa(lp2492
I13
aI17
aa(lp2493
I14
aI18
aa(lp2494
I84
aI18
aa(lp2495
I140
aI17
aa(lp2496
I141
aI17
aa(lp2497
I142
aI16
aa(lp2498
I143
aI16
aa(lp2499
I144
aI15
aa(lp2500
I145
aI15
aa(lp2501
I146
aI15
aa(lp2502
I147
aI14
aa(lp2503
I148
aI14
aa(lp2504
I149
aI13
aa(lp2505
I150
aI13
aa(lp2506
I151
aI13
aa(lp2507
I152
aI12
aa(lp2508
I153
aI12
aa(lp2509
I154
aI11
aa(lp2510
I165
aI11
aa(lp2511
I166
aI11
aa(lp2512
I167
aI11
aa(lp2513
I168
aI22
aa(lp2514
I169
aI22
aa(lp2515
I170
aI22
aa(lp2516
I171
aI22
aa(lp2517
I172
aI33
aa(lp2518
I173
aI33
aa(lp2519
I174
aI33
aa(lp2520
I175
aI33
aa(lp2521
I176
aI44
aa(lp2522
I177
aI44
aa(lp2523
I178
aI44
aa(lp2524
I179
aI44
aa(lp2525
I235
aI33
aa(lp2526
I236
aI33
aa(lp2527
I237
aI33
aa(lp2528
I238
aI33
aa(lp2529
I239
aI22
aa(lp2530
I240
aI22
aa(lp2531
I241
aI22
aa(lp2532
I242
aI23
aa(lp2533
I243
aI23
aa(lp2534
I244
aI12
aa(lp2535
I245
aI12
aa(lp2536
I246
aI12
aa(lp2537
I247
aI12
aa(lp2538
I248
aI12
aa(lp2539
I249
aI1
aa(lp2540
I305
aI1
aa(lp2541
I306
aI1
aa(lp2542
I307
aI12
aa(lp2543
I308
aI12
aa(lp2544
I309
aI12
aa(lp2545
I310
aI12
aa(lp2546
I311
aI23
aa(lp2547
I312
aI23
aa(lp2548
I313
aI34
aa(lp2549
I314
aI34
aa(lp2550
I315
aI34
aa(lp2551
I316
aI45
aa(lp2552
I317
aI45
aa(lp2553
I318
aI45
aa(lp2554
I319
aI45
aa(lp2555
I375
aI34
aa(lp2556
I376
aI35
aa(lp2557
I377
aI35
aa(lp2558
I378
aI36
aa(lp2559
I379
aI25
aa(lp2560
I380
aI26
aa(lp2561
I381
aI26
aa(lp2562
I382
aI27
aa(lp2563
I383
aI27
aa(lp2564
I384
aI17
aa(lp2565
I385
aI17
aa(lp2566
I386
aI18
aa(lp2567
I387
aI18
aa(lp2568
I388
aI19
aa(lp2569
I389
aI8
aa(lp2570
I445
aI8
aa(lp2571
I446
aI8
aa(lp2572
I447
aI8
aa(lp2573
I448
aI8
aa(lp2574
I449
aI8
aa(lp2575
I450
aI8
aa(lp2576
I451
aI8
aa(lp2577
I452
aI8
aa(lp2578
I453
aI8
aa(lp2579
I454
aI8
aa(lp2580
I455
aI8
aa(lp2581
I456
aI8
aa(lp2582
I457
aI8
aa(lp2583
I458
aI8
aa(lp2584
I459
aI8
aa(lp2585
I470
aI7
aa(lp2586
I471
aI7
aa(lp2587
I472
aI17
aa(lp2588
I473
aI17
aa(lp2589
I474
aI16
aa(lp2590
I475
aI16
aa(lp2591
I476
aI26
aa(lp2592
I477
aI26
aa(lp2593
I478
aI36
aa(lp2594
I479
aI36
aa(lp2595
I480
aI35
aa(lp2596
I481
aI46
aa(lp2597
I482
aI45
aa(lp2598
I483
aI45
aa(lp2599
I484
aI44
aa(lp2600
I540
aI33
aa(lp2601
I541
aI33
aa(lp2602
I542
aI34
aa(lp2603
I543
aI34
aa(lp2604
I544
aI23
aa(lp2605
I545
aI23
aa(lp2606
I546
aI24
aa(lp2607
I547
aI24
aa(lp2608
I548
aI25
aa(lp2609
I549
aI14
aa(lp2610
I550
aI14
aa(lp2611
I551
aI15
aa(lp2612
I552
aI15
aa(lp2613
I553
aI15
aa(lp2614
I554
aI4
aatp2615
Rp2616
sI17
g71
((lp2617
(lp2618
I0
aI17
aa(lp2619
I1
aI17
aa(lp2620
I2
aI17
aa(lp2621
I3
aI17
aa(lp2622
I4
aI18
aa(lp2623
I5
aI18
aa(lp2624
I6
aI18
aa(lp2625
I7
aI18
aa(lp2626
I8
aI18
aa(lp2627
I9
aI19
aa(lp2628
I10
aI19
aa(lp2629
I11
aI19
aa(lp2630
I12
aI19
aa(lp2631
I13
aI19
aa(lp2632
I14
aI19
aa(lp2633
I70
aI19
aa(lp2634
I71
aI19
aa(lp2635
I72
aI19
aa(lp2636
I73
aI19
aa(lp2637
I74
aI19
aa(lp2638
I75
aI19
aa(lp2639
I76
aI19
aa(lp2640
I77
aI19
aa(lp2641
I78
aI19
aa(lp2642
I79
aI19
aa(lp2643
I80
aI19
aa(lp2644
I81
aI19
aa(lp2645
I82
aI19
aa(lp2646
I83
aI19
aa(lp2647
I84
aI19
aa(lp2648
I140
aI18
aa(lp2649
I141
aI18
aa(lp2650
I142
aI18
aa(lp2651
I143
aI28
aa(lp2652
I144
aI28
aa(lp2653
I145
aI28
aa(lp2654
I146
aI27
aa(lp2655
I147
aI38
aa(lp2656
I148
aI38
aa(lp2657
I149
aI37
aa(lp2658
I150
aI37
aa(lp2659
I151
aI48
aa(lp2660
I152
aI47
aa(lp2661
I153
aI47
aa(lp2662
I154
aI47
aa(lp2663
I165
aI46
aa(lp2664
I166
aI46
aa(lp2665
I167
aI46
aa(lp2666
I168
aI46
aa(lp2667
I169
aI46
aa(lp2668
I170
aI46
aa(lp2669
I171
aI46
aa(lp2670
I172
aI45
aa(lp2671
I173
aI45
aa(lp2672
I174
aI45
aa(lp2673
I175
aI45
aa(lp2674
I176
aI45
aa(lp2675
I177
aI45
aa(lp2676
I178
aI45
aa(lp2677
I179
aI45
aa(lp2678
I235
aI34
aa(lp2679
I236
aI34
aa(lp2680
I237
aI34
aa(lp2681
I238
aI34
aa(lp2682
I239
aI23
aa(lp2683
I240
aI23
aa(lp2684
I241
aI23
aa(lp2685
I242
aI23
aa(lp2686
I243
aI23
aa(lp2687
I244
aI12
aa(lp2688
I245
aI12
aa(lp2689
I246
aI12
aa(lp2690
I247
aI12
aa(lp2691
I248
aI12
aa(lp2692
I249
aI1
aa(lp2693
I305
aI1
aa(lp2694
I306
aI1
aa(lp2695
I307
aI1
aa(lp2696
I308
aI12
aa(lp2697
I309
aI12
aa(lp2698
I310
aI12
aa(lp2699
I311
aI12
aa(lp2700
I312
aI23
aa(lp2701
I313
aI23
aa(lp2702
I314
aI23
aa(lp2703
I315
aI23
aa(lp2704
I316
aI34
aa(lp2705
I317
aI34
aa(lp2706
I318
aI34
aa(lp2707
I319
aI34
aa(lp2708
I375
aI23
aa(lp2709
I376
aI24
aa(lp2710
I377
aI24
aa(lp2711
I378
aI25
aa(lp2712
I379
aI25
aa(lp2713
I380
aI26
aa(lp2714
I381
aI26
aa(lp2715
I382
aI16
aa(lp2716
I383
aI16
aa(lp2717
I384
aI17
aa(lp2718
I385
aI17
aa(lp2719
I386
aI18
aa(lp2720
I387
aI18
aa(lp2721
I388
aI19
aa(lp2722
I389
aI19
aa(lp2723
I445
aI18
aa(lp2724
I446
aI18
aa(lp2725
I447
aI18
aa(lp2726
I448
aI17
aa(lp2727
I449
aI17
aa(lp2728
I450
aI17
aa(lp2729
I451
aI17
aa(lp2730
I452
aI16
aa(lp2731
I453
aI16
aa(lp2732
I454
aI16
aa(lp2733
I455
aI16
aa(lp2734
I456
aI15
aa(lp2735
I457
aI15
aa(lp2736
I458
aI15
aa(lp2737
I459
aI15
aa(lp2738
I470
aI14
aa(lp2739
I471
aI14
aa(lp2740
I472
aI14
aa(lp2741
I473
aI14
aa(lp2742
I474
aI13
aa(lp2743
I475
aI24
aa(lp2744
I476
aI24
aa(lp2745
I477
aI24
aa(lp2746
I478
aI24
aa(lp2747
I479
aI34
aa(lp2748
I480
aI34
aa(lp2749
I481
aI34
aa(lp2750
I482
aI34
aa(lp2751
I483
aI34
aa(lp2752
I484
aI44
aa(lp2753
I540
aI44
aa(lp2754
I541
aI45
aa(lp2755
I542
aI46
aa(lp2756
I543
aI46
aa(lp2757
I544
aI47
aa(lp2758
I545
aI47
aa(lp2759
I546
aI48
aa(lp2760
I547
aI49
aa(lp2761
I548
aI50
aa(lp2762
I549
aI50
aa(lp2763
I550
aI51
aa(lp2764
I551
aI52
aa(lp2765
I552
aI52
aa(lp2766
I553
aI53
aa(lp2767
I554
aI53
aatp2768
Rp2769
sI18
g71
((lp2770
(lp2771
I0
aI18
aa(lp2772
I1
aI18
aa(lp2773
I2
aI18
aa(lp2774
I3
aI18
aa(lp2775
I4
aI19
aa(lp2776
I5
aI19
aa(lp2777
I6
aI19
aa(lp2778
I7
aI19
aa(lp2779
I8
aI19
aa(lp2780
I9
aI19
aa(lp2781
I10
aI20
aa(lp2782
I11
aI20
aa(lp2783
I12
aI20
aa(lp2784
I13
aI20
aa(lp2785
I14
aI20
aa(lp2786
I70
aI20
aa(lp2787
I71
aI20
aa(lp2788
I72
aI20
aa(lp2789
I73
aI20
aa(lp2790
I74
aI20
aa(lp2791
I75
aI20
aa(lp2792
I76
aI20
aa(lp2793
I77
aI20
aa(lp2794
I78
aI20
aa(lp2795
I79
aI20
aa(lp2796
I80
aI20
aa(lp2797
I81
aI20
aa(lp2798
I82
aI20
aa(lp2799
I83
aI20
aa(lp2800
I84
aI20
aa(lp2801
I140
aI19
aa(lp2802
I141
aI19
aa(lp2803
I142
aI18
aa(lp2804
I143
aI18
aa(lp2805
I144
aI18
aa(lp2806
I145
aI18
aa(lp2807
I146
aI17
aa(lp2808
I147
aI17
aa(lp2809
I148
aI17
aa(lp2810
I149
aI16
aa(lp2811
I150
aI16
aa(lp2812
I151
aI16
aa(lp2813
I152
aI15
aa(lp2814
I153
aI15
aa(lp2815
I154
aI15
aa(lp2816
I165
aI15
aa(lp2817
I166
aI15
aa(lp2818
I167
aI15
aa(lp2819
I168
aI15
aa(lp2820
I169
aI15
aa(lp2821
I170
aI15
aa(lp2822
I171
aI15
aa(lp2823
I172
aI26
aa(lp2824
I173
aI26
aa(lp2825
I174
aI26
aa(lp2826
I175
aI26
aa(lp2827
I176
aI26
aa(lp2828
I177
aI26
aa(lp2829
I178
aI26
aa(lp2830
I179
aI26
aa(lp2831
I235
aI14
aa(lp2832
I236
aI14
aa(lp2833
I237
aI14
aa(lp2834
I238
aI14
aa(lp2835
I239
aI14
aa(lp2836
I240
aI14
aa(lp2837
I241
aI14
aa(lp2838
I242
aI2
aa(lp2839
I243
aI2
aa(lp2840
I244
aI2
aa(lp2841
I245
aI2
aa(lp2842
I246
aI2
aa(lp2843
I247
aI2
aa(lp2844
I248
aI2
aa(lp2845
I249
aI2
aa(lp2846
I305
aI2
aa(lp2847
I306
aI2
aa(lp2848
I307
aI2
aa(lp2849
I308
aI2
aa(lp2850
I309
aI14
aa(lp2851
I310
aI14
aa(lp2852
I311
aI14
aa(lp2853
I312
aI14
aa(lp2854
I313
aI14
aa(lp2855
I314
aI15
aa(lp2856
I315
aI26
aa(lp2857
I316
aI26
aa(lp2858
I317
aI26
aa(lp2859
I318
aI26
aa(lp2860
I319
aI38
aa(lp2861
I375
aI38
aa(lp2862
I376
aI38
aa(lp2863
I377
aI38
aa(lp2864
I378
aI38
aa(lp2865
I379
aI38
aa(lp2866
I380
aI38
aa(lp2867
I381
aI38
aa(lp2868
I382
aI38
aa(lp2869
I383
aI38
aa(lp2870
I384
aI38
aa(lp2871
I385
aI38
aa(lp2872
I386
aI38
aa(lp2873
I387
aI38
aa(lp2874
I388
aI38
aa(lp2875
I389
aI49
aa(lp2876
I445
aI38
aa(lp2877
I446
aI38
aa(lp2878
I447
aI38
aa(lp2879
I448
aI38
aa(lp2880
I449
aI28
aa(lp2881
I450
aI28
aa(lp2882
I451
aI28
aa(lp2883
I452
aI28
aa(lp2884
I453
aI28
aa(lp2885
I454
aI18
aa(lp2886
I455
aI18
aa(lp2887
I456
aI18
aa(lp2888
I457
aI18
aa(lp2889
I458
aI18
aa(lp2890
I459
aI8
aa(lp2891
I470
aI7
aa(lp2892
I471
aI7
aa(lp2893
I472
aI7
aa(lp2894
I473
aI7
aa(lp2895
I474
aI17
aa(lp2896
I475
aI17
aa(lp2897
I476
aI17
aa(lp2898
I477
aI17
aa(lp2899
I478
aI17
aa(lp2900
I479
aI16
aa(lp2901
I480
aI27
aa(lp2902
I481
aI27
aa(lp2903
I482
aI27
aa(lp2904
I483
aI27
aa(lp2905
I484
aI37
aa(lp2906
I540
aI37
aa(lp2907
I541
aI37
aa(lp2908
I542
aI38
aa(lp2909
I543
aI38
aa(lp2910
I544
aI39
aa(lp2911
I545
aI39
aa(lp2912
I546
aI39
aa(lp2913
I547
aI40
aa(lp2914
I548
aI40
aa(lp2915
I549
aI41
aa(lp2916
I550
aI41
aa(lp2917
I551
aI41
aa(lp2918
I552
aI42
aa(lp2919
I553
aI42
aa(lp2920
I554
aI54
aatp2921
Rp2922
sI19
g71
((lp2923
(lp2924
I0
aI19
aa(lp2925
I1
aI19
aa(lp2926
I2
aI19
aa(lp2927
I3
aI19
aa(lp2928
I4
aI19
aa(lp2929
I5
aI19
aa(lp2930
I6
aI19
aa(lp2931
I7
aI19
aa(lp2932
I8
aI19
aa(lp2933
I9
aI19
aa(lp2934
I10
aI19
aa(lp2935
I11
aI19
aa(lp2936
I12
aI19
aa(lp2937
I13
aI19
aa(lp2938
I14
aI19
aa(lp2939
I70
aI19
aa(lp2940
I71
aI19
aa(lp2941
I72
aI19
aa(lp2942
I73
aI19
aa(lp2943
I74
aI19
aa(lp2944
I75
aI19
aa(lp2945
I76
aI19
aa(lp2946
I77
aI19
aa(lp2947
I78
aI19
aa(lp2948
I79
aI19
aa(lp2949
I80
aI19
aa(lp2950
I81
aI19
aa(lp2951
I82
aI19
aa(lp2952
I83
aI19
aa(lp2953
I84
aI19
aa(lp2954
I140
aI18
aa(lp2955
I141
aI18
aa(lp2956
I142
aI18
aa(lp2957
I143
aI28
aa(lp2958
I144
aI28
aa(lp2959
I145
aI28
aa(lp2960
I146
aI27
aa(lp2961
I147
aI38
aa(lp2962
I148
aI38
aa(lp2963
I149
aI37
aa(lp2964
I150
aI37
aa(lp2965
I151
aI48
aa(lp2966
I152
aI47
aa(lp2967
I153
aI47
aa(lp2968
I154
aI47
aa(lp2969
I165
aI36
aa(lp2970
I166
aI36
aa(lp2971
I167
aI36
aa(lp2972
I168
aI36
aa(lp2973
I169
aI36
aa(lp2974
I170
aI36
aa(lp2975
I171
aI36
aa(lp2976
I172
aI37
aa(lp2977
I173
aI37
aa(lp2978
I174
aI37
aa(lp2979
I175
aI37
aa(lp2980
I176
aI37
aa(lp2981
I177
aI37
aa(lp2982
I178
aI37
aa(lp2983
I179
aI27
aa(lp2984
I235
aI16
aa(lp2985
I236
aI16
aa(lp2986
I237
aI16
aa(lp2987
I238
aI16
aa(lp2988
I239
aI17
aa(lp2989
I240
aI17
aa(lp2990
I241
aI17
aa(lp2991
I242
aI17
aa(lp2992
I243
aI17
aa(lp2993
I244
aI18
aa(lp2994
I245
aI18
aa(lp2995
I246
aI18
aa(lp2996
I247
aI18
aa(lp2997
I248
aI18
aa(lp2998
I249
aI19
aa(lp2999
I305
aI18
aa(lp3000
I306
aI18
aa(lp3001
I307
aI18
aa(lp3002
I308
aI18
aa(lp3003
I309
aI17
aa(lp3004
I310
aI17
aa(lp3005
I311
aI17
aa(lp3006
I312
aI28
aa(lp3007
I313
aI28
aa(lp3008
I314
aI27
aa(lp3009
I315
aI27
aa(lp3010
I316
aI27
aa(lp3011
I317
aI27
aa(lp3012
I318
aI27
aa(lp3013
I319
aI26
aa(lp3014
I375
aI15
aa(lp3015
I376
aI15
aa(lp3016
I377
aI15
aa(lp3017
I378
aI16
aa(lp3018
I379
aI16
aa(lp3019
I380
aI16
aa(lp3020
I381
aI17
aa(lp3021
I382
aI17
aa(lp3022
I383
aI17
aa(lp3023
I384
aI18
aa(lp3024
I385
aI18
aa(lp3025
I386
aI18
aa(lp3026
I387
aI19
aa(lp3027
I388
aI19
aa(lp3028
I389
aI19
aa(lp3029
I445
aI18
aa(lp3030
I446
aI18
aa(lp3031
I447
aI18
aa(lp3032
I448
aI17
aa(lp3033
I449
aI17
aa(lp3034
I450
aI17
aa(lp3035
I451
aI17
aa(lp3036
I452
aI16
aa(lp3037
I453
aI16
aa(lp3038
I454
aI16
aa(lp3039
I455
aI16
aa(lp3040
I456
aI15
aa(lp3041
I457
aI15
aa(lp3042
I458
aI15
aa(lp3043
I459
aI15
aa(lp3044
I470
aI15
aa(lp3045
I471
aI15
aa(lp3046
I472
aI15
aa(lp3047
I473
aI15
aa(lp3048
I474
aI15
aa(lp3049
I475
aI15
aa(lp3050
I476
aI15
aa(lp3051
I477
aI26
aa(lp3052
I478
aI26
aa(lp3053
I479
aI26
aa(lp3054
I480
aI26
aa(lp3055
I481
aI26
aa(lp3056
I482
aI26
aa(lp3057
I483
aI26
aa(lp3058
I484
aI26
aa(lp3059
I540
aI15
aa(lp3060
I541
aI15
aa(lp3061
I542
aI15
aa(lp3062
I543
aI15
aa(lp3063
I544
aI15
aa(lp3064
I545
aI15
aa(lp3065
I546
aI15
aa(lp3066
I547
aI15
aa(lp3067
I548
aI15
aa(lp3068
I549
aI15
aa(lp3069
I550
aI15
aa(lp3070
I551
aI15
aa(lp3071
I552
aI15
aa(lp3072
I553
aI15
aa(lp3073
I554
aI15
aatp3074
Rp3075
sI20
g71
((lp3076
(lp3077
I0
aI20
aa(lp3078
I1
aI20
aa(lp3079
I2
aI20
aa(lp3080
I3
aI20
aa(lp3081
I4
aI20
aa(lp3082
I5
aI20
aa(lp3083
I6
aI20
aa(lp3084
I7
aI20
aa(lp3085
I8
aI20
aa(lp3086
I9
aI20
aa(lp3087
I10
aI20
aa(lp3088
I11
aI20
aa(lp3089
I12
aI20
aa(lp3090
I13
aI20
aa(lp3091
I14
aI20
aa(lp3092
I70
aI20
aa(lp3093
I71
aI20
aa(lp3094
I72
aI20
aa(lp3095
I73
aI20
aa(lp3096
I74
aI20
aa(lp3097
I75
aI20
aa(lp3098
I76
aI20
aa(lp3099
I77
aI20
aa(lp3100
I78
aI20
aa(lp3101
I79
aI20
aa(lp3102
I80
aI20
aa(lp3103
I81
aI20
aa(lp3104
I82
aI20
aa(lp3105
I83
aI20
aa(lp3106
I84
aI20
aa(lp3107
I140
aI19
aa(lp3108
I141
aI19
aa(lp3109
I142
aI18
aa(lp3110
I143
aI18
aa(lp3111
I144
aI18
aa(lp3112
I145
aI18
aa(lp3113
I146
aI17
aa(lp3114
I147
aI17
aa(lp3115
I148
aI17
aa(lp3116
I149
aI16
aa(lp3117
I150
aI16
aa(lp3118
I151
aI16
aa(lp3119
I152
aI15
aa(lp3120
I153
aI15
aa(lp3121
I154
aI15
aa(lp3122
I165
aI14
aa(lp3123
I166
aI14
aa(lp3124
I167
aI14
aa(lp3125
I168
aI14
aa(lp3126
I169
aI14
aa(lp3127
I170
aI25
aa(lp3128
I171
aI25
aa(lp3129
I172
aI24
aa(lp3130
I173
aI24
aa(lp3131
I174
aI35
aa(lp3132
I175
aI35
aa(lp3133
I176
aI35
aa(lp3134
I177
aI35
aa(lp3135
I178
aI35
aa(lp3136
I179
aI46
aa(lp3137
I235
aI35
aa(lp3138
I236
aI35
aa(lp3139
I237
aI35
aa(lp3140
I238
aI24
aa(lp3141
I239
aI24
aa(lp3142
I240
aI24
aa(lp3143
I241
aI24
aa(lp3144
I242
aI13
aa(lp3145
I243
aI13
aa(lp3146
I244
aI13
aa(lp3147
I245
aI13
aa(lp3148
I246
aI2
aa(lp3149
I247
aI2
aa(lp3150
I248
aI2
aa(lp3151
I249
aI2
aa(lp3152
I305
aI2
aa(lp3153
I306
aI2
aa(lp3154
I307
aI2
aa(lp3155
I308
aI13
aa(lp3156
I309
aI13
aa(lp3157
I310
aI13
aa(lp3158
I311
aI13
aa(lp3159
I312
aI24
aa(lp3160
I313
aI24
aa(lp3161
I314
aI24
aa(lp3162
I315
aI24
aa(lp3163
I316
aI35
aa(lp3164
I317
aI35
aa(lp3165
I318
aI35
aa(lp3166
I319
aI35
aa(lp3167
I375
aI24
aa(lp3168
I376
aI24
aa(lp3169
I377
aI25
aa(lp3170
I378
aI25
aa(lp3171
I379
aI26
aa(lp3172
I380
aI26
aa(lp3173
I381
aI27
aa(lp3174
I382
aI16
aa(lp3175
I383
aI17
aa(lp3176
I384
aI17
aa(lp3177
I385
aI18
aa(lp3178
I386
aI18
aa(lp3179
I387
aI19
aa(lp3180
I388
aI19
aa(lp3181
I389
aI20
aa(lp3182
I445
aI19
aa(lp3183
I446
aI19
aa(lp3184
I447
aI18
aa(lp3185
I448
aI18
aa(lp3186
I449
aI18
aa(lp3187
I450
aI18
aa(lp3188
I451
aI17
aa(lp3189
I452
aI17
aa(lp3190
I453
aI17
aa(lp3191
I454
aI16
aa(lp3192
I455
aI16
aa(lp3193
I456
aI16
aa(lp3194
I457
aI15
aa(lp3195
I458
aI15
aa(lp3196
I459
aI15
aa(lp3197
I470
aI14
aa(lp3198
I471
aI14
aa(lp3199
I472
aI14
aa(lp3200
I473
aI14
aa(lp3201
I474
aI14
aa(lp3202
I475
aI25
aa(lp3203
I476
aI25
aa(lp3204
I477
aI24
aa(lp3205
I478
aI24
aa(lp3206
I479
aI35
aa(lp3207
I480
aI35
aa(lp3208
I481
aI35
aa(lp3209
I482
aI35
aa(lp3210
I483
aI35
aa(lp3211
I484
aI46
aa(lp3212
I540
aI46
aa(lp3213
I541
aI47
aa(lp3214
I542
aI47
aa(lp3215
I543
aI48
aa(lp3216
I544
aI48
aa(lp3217
I545
aI49
aa(lp3218
I546
aI49
aa(lp3219
I547
aI50
aa(lp3220
I548
aI50
aa(lp3221
I549
aI51
aa(lp3222
I550
aI51
aa(lp3223
I551
aI52
aa(lp3224
I552
aI52
aa(lp3225
I553
aI53
aa(lp3226
I554
aI53
aatp3227
Rp3228
sI21
g71
((lp3229
(lp3230
I0
aI20
aa(lp3231
I1
aI20
aa(lp3232
I2
aI20
aa(lp3233
I3
aI20
aa(lp3234
I4
aI20
aa(lp3235
I5
aI19
aa(lp3236
I6
aI19
aa(lp3237
I7
aI19
aa(lp3238
I8
aI19
aa(lp3239
I9
aI19
aa(lp3240
I10
aI18
aa(lp3241
I11
aI18
aa(lp3242
I12
aI18
aa(lp3243
I13
aI18
aa(lp3244
I14
aI18
aa(lp3245
I84
aI18
aa(lp3246
I140
aI17
aa(lp3247
I141
aI17
aa(lp3248
I142
aI16
aa(lp3249
I143
aI16
aa(lp3250
I144
aI15
aa(lp3251
I145
aI15
aa(lp3252
I146
aI15
aa(lp3253
I147
aI14
aa(lp3254
I148
aI14
aa(lp3255
I149
aI13
aa(lp3256
I150
aI13
aa(lp3257
I151
aI13
aa(lp3258
I152
aI12
aa(lp3259
I153
aI12
aa(lp3260
I154
aI11
aa(lp3261
I165
aI11
aa(lp3262
I166
aI11
aa(lp3263
I167
aI12
aa(lp3264
I168
aI12
aa(lp3265
I169
aI12
aa(lp3266
I170
aI12
aa(lp3267
I171
aI13
aa(lp3268
I172
aI24
aa(lp3269
I173
aI25
aa(lp3270
I174
aI25
aa(lp3271
I175
aI25
aa(lp3272
I176
aI26
aa(lp3273
I177
aI26
aa(lp3274
I178
aI26
aa(lp3275
I179
aI26
aa(lp3276
I235
aI15
aa(lp3277
I236
aI15
aa(lp3278
I237
aI15
aa(lp3279
I238
aI16
aa(lp3280
I239
aI16
aa(lp3281
I240
aI16
aa(lp3282
I241
aI16
aa(lp3283
I242
aI17
aa(lp3284
I243
aI17
aa(lp3285
I244
aI17
aa(lp3286
I245
aI17
aa(lp3287
I246
aI18
aa(lp3288
I247
aI18
aa(lp3289
I248
aI18
aa(lp3290
I249
aI18
aa(lp3291
I305
aI17
aa(lp3292
I306
aI17
aa(lp3293
I307
aI17
aa(lp3294
I308
aI17
aa(lp3295
I309
aI17
aa(lp3296
I310
aI17
aa(lp3297
I311
aI17
aa(lp3298
I312
aI27
aa(lp3299
I313
aI27
aa(lp3300
I314
aI27
aa(lp3301
I315
aI27
aa(lp3302
I316
aI27
aa(lp3303
I317
aI27
aa(lp3304
I318
aI27
aa(lp3305
I319
aI26
aa(lp3306
I375
aI26
aa(lp3307
I376
aI26
aa(lp3308
I377
aI26
aa(lp3309
I378
aI27
aa(lp3310
I379
aI27
aa(lp3311
I380
aI27
aa(lp3312
I381
aI28
aa(lp3313
I382
aI39
aa(lp3314
I383
aI39
aa(lp3315
I384
aI40
aa(lp3316
I385
aI40
aa(lp3317
I386
aI40
aa(lp3318
I387
aI41
aa(lp3319
I388
aI41
aa(lp3320
I389
aI41
aa(lp3321
I445
aI30
aa(lp3322
I446
aI30
aa(lp3323
I447
aI30
aa(lp3324
I448
aI30
aa(lp3325
I449
aI30
aa(lp3326
I450
aI30
aa(lp3327
I451
aI30
aa(lp3328
I452
aI19
aa(lp3329
I453
aI19
aa(lp3330
I454
aI19
aa(lp3331
I455
aI19
aa(lp3332
I456
aI19
aa(lp3333
I457
aI19
aa(lp3334
I458
aI19
aa(lp3335
I459
aI19
aa(lp3336
I470
aI18
aa(lp3337
I471
aI18
aa(lp3338
I472
aI18
aa(lp3339
I473
aI18
aa(lp3340
I474
aI17
aa(lp3341
I475
aI17
aa(lp3342
I476
aI17
aa(lp3343
I477
aI28
aa(lp3344
I478
aI28
aa(lp3345
I479
aI27
aa(lp3346
I480
aI27
aa(lp3347
I481
aI27
aa(lp3348
I482
aI27
aa(lp3349
I483
aI27
aa(lp3350
I484
aI26
aa(lp3351
I540
aI26
aa(lp3352
I541
aI26
aa(lp3353
I542
aI27
aa(lp3354
I543
aI27
aa(lp3355
I544
aI28
aa(lp3356
I545
aI28
aa(lp3357
I546
aI28
aa(lp3358
I547
aI40
aa(lp3359
I548
aI40
aa(lp3360
I549
aI41
aa(lp3361
I550
aI41
aa(lp3362
I551
aI41
aa(lp3363
I552
aI42
aa(lp3364
I553
aI42
aa(lp3365
I554
aI43
aatp3366
Rp3367
sI22
g71
((lp3368
(lp3369
I0
aI11
aa(lp3370
I1
aI12
aa(lp3371
I2
aI13
aa(lp3372
I3
aI13
aa(lp3373
I4
aI14
aa(lp3374
I5
aI14
aa(lp3375
I6
aI15
aa(lp3376
I7
aI16
aa(lp3377
I8
aI17
aa(lp3378
I9
aI17
aa(lp3379
I10
aI18
aa(lp3380
I11
aI19
aa(lp3381
I12
aI19
aa(lp3382
I13
aI20
aa(lp3383
I14
aI20
aa(lp3384
I70
aI20
aa(lp3385
I71
aI20
aa(lp3386
I72
aI20
aa(lp3387
I73
aI20
aa(lp3388
I74
aI20
aa(lp3389
I75
aI20
aa(lp3390
I76
aI20
aa(lp3391
I77
aI20
aa(lp3392
I78
aI20
aa(lp3393
I79
aI20
aa(lp3394
I80
aI20
aa(lp3395
I81
aI20
aa(lp3396
I82
aI20
aa(lp3397
I83
aI20
aa(lp3398
I84
aI20
aa(lp3399
I140
aI19
aa(lp3400
I141
aI19
aa(lp3401
I142
aI18
aa(lp3402
I143
aI18
aa(lp3403
I144
aI18
aa(lp3404
I145
aI18
aa(lp3405
I146
aI17
aa(lp3406
I147
aI17
aa(lp3407
I148
aI17
aa(lp3408
I149
aI16
aa(lp3409
I150
aI16
aa(lp3410
I151
aI16
aa(lp3411
I152
aI15
aa(lp3412
I153
aI15
aa(lp3413
I154
aI15
aa(lp3414
I165
aI14
aa(lp3415
I166
aI14
aa(lp3416
I167
aI14
aa(lp3417
I168
aI14
aa(lp3418
I169
aI14
aa(lp3419
I170
aI25
aa(lp3420
I171
aI25
aa(lp3421
I172
aI24
aa(lp3422
I173
aI24
aa(lp3423
I174
aI35
aa(lp3424
I175
aI35
aa(lp3425
I176
aI35
aa(lp3426
I177
aI35
aa(lp3427
I178
aI35
aa(lp3428
I179
aI46
aa(lp3429
I235
aI35
aa(lp3430
I236
aI35
aa(lp3431
I237
aI36
aa(lp3432
I238
aI36
aa(lp3433
I239
aI25
aa(lp3434
I240
aI26
aa(lp3435
I241
aI26
aa(lp3436
I242
aI27
aa(lp3437
I243
aI27
aa(lp3438
I244
aI17
aa(lp3439
I245
aI17
aa(lp3440
I246
aI17
aa(lp3441
I247
aI18
aa(lp3442
I248
aI18
aa(lp3443
I249
aI8
aa(lp3444
I305
aI7
aa(lp3445
I306
aI7
aa(lp3446
I307
aI6
aa(lp3447
I308
aI17
aa(lp3448
I309
aI16
aa(lp3449
I310
aI16
aa(lp3450
I311
aI16
aa(lp3451
I312
aI26
aa(lp3452
I313
aI26
aa(lp3453
I314
aI25
aa(lp3454
I315
aI25
aa(lp3455
I316
aI36
aa(lp3456
I317
aI35
aa(lp3457
I318
aI35
aa(lp3458
I319
aI34
aa(lp3459
I375
aI34
aa(lp3460
I376
aI35
aa(lp3461
I377
aI35
aa(lp3462
I378
aI36
aa(lp3463
I379
aI36
aa(lp3464
I380
aI37
aa(lp3465
I381
aI37
aa(lp3466
I382
aI38
aa(lp3467
I383
aI38
aa(lp3468
I384
aI39
aa(lp3469
I385
aI39
aa(lp3470
I386
aI40
aa(lp3471
I387
aI40
aa(lp3472
I388
aI41
aa(lp3473
I389
aI52
aa(lp3474
I445
aI40
aa(lp3475
I446
aI40
aa(lp3476
I447
aI40
aa(lp3477
I448
aI39
aa(lp3478
I449
aI28
aa(lp3479
I450
aI28
aa(lp3480
I451
aI28
aa(lp3481
I452
aI27
aa(lp3482
I453
aI27
aa(lp3483
I454
aI16
aa(lp3484
I455
aI16
aa(lp3485
I456
aI15
aa(lp3486
I457
aI15
aa(lp3487
I458
aI15
aa(lp3488
I459
aI4
aa(lp3489
I470
aI3
aa(lp3490
I471
aI3
aa(lp3491
I472
aI3
aa(lp3492
I473
aI14
aa(lp3493
I474
aI14
aa(lp3494
I475
aI14
aa(lp3495
I476
aI14
aa(lp3496
I477
aI24
aa(lp3497
I478
aI24
aa(lp3498
I479
aI24
aa(lp3499
I480
aI24
aa(lp3500
I481
aI35
aa(lp3501
I482
aI35
aa(lp3502
I483
aI35
aa(lp3503
I484
aI35
aa(lp3504
I540
aI24
aa(lp3505
I541
aI24
aa(lp3506
I542
aI24
aa(lp3507
I543
aI24
aa(lp3508
I544
aI25
aa(lp3509
I545
aI25
aa(lp3510
I546
aI25
aa(lp3511
I547
aI14
aa(lp3512
I548
aI14
aa(lp3513
I549
aI15
aa(lp3514
I550
aI15
aa(lp3515
I551
aI15
aa(lp3516
I552
aI15
aa(lp3517
I553
aI15
aa(lp3518
I554
aI16
aatp3519
Rp3520
sI23
g71
((lp3521
(lp3522
I0
aI12
aa(lp3523
I1
aI12
aa(lp3524
I2
aI13
aa(lp3525
I3
aI13
aa(lp3526
I4
aI13
aa(lp3527
I5
aI14
aa(lp3528
I6
aI14
aa(lp3529
I7
aI15
aa(lp3530
I8
aI15
aa(lp3531
I9
aI16
aa(lp3532
I10
aI16
aa(lp3533
I11
aI16
aa(lp3534
I12
aI17
aa(lp3535
I13
aI17
aa(lp3536
I14
aI18
aa(lp3537
I84
aI18
aa(lp3538
I140
aI17
aa(lp3539
I141
aI17
aa(lp3540
I142
aI16
aa(lp3541
I143
aI16
aa(lp3542
I144
aI15
aa(lp3543
I145
aI15
aa(lp3544
I146
aI15
aa(lp3545
I147
aI14
aa(lp3546
I148
aI14
aa(lp3547
I149
aI13
aa(lp3548
I150
aI13
aa(lp3549
I151
aI13
aa(lp3550
I152
aI12
aa(lp3551
I153
aI12
aa(lp3552
I154
aI11
aa(lp3553
I165
aI11
aa(lp3554
I166
aI11
aa(lp3555
I167
aI11
aa(lp3556
I168
aI11
aa(lp3557
I169
aI12
aa(lp3558
I170
aI12
aa(lp3559
I171
aI12
aa(lp3560
I172
aI23
aa(lp3561
I173
aI23
aa(lp3562
I174
aI23
aa(lp3563
I175
aI24
aa(lp3564
I176
aI24
aa(lp3565
I177
aI24
aa(lp3566
I178
aI24
aa(lp3567
I179
aI25
aa(lp3568
I235
aI14
aa(lp3569
I236
aI14
aa(lp3570
I237
aI15
aa(lp3571
I238
aI15
aa(lp3572
I239
aI15
aa(lp3573
I240
aI15
aa(lp3574
I241
aI16
aa(lp3575
I242
aI16
aa(lp3576
I243
aI16
aa(lp3577
I244
aI17
aa(lp3578
I245
aI17
aa(lp3579
I246
aI17
aa(lp3580
I247
aI18
aa(lp3581
I248
aI18
aa(lp3582
I249
aI18
aa(lp3583
I305
aI17
aa(lp3584
I306
aI17
aa(lp3585
I307
aI17
aa(lp3586
I308
aI16
aa(lp3587
I309
aI16
aa(lp3588
I310
aI16
aa(lp3589
I311
aI16
aa(lp3590
I312
aI26
aa(lp3591
I313
aI26
aa(lp3592
I314
aI26
aa(lp3593
I315
aI26
aa(lp3594
I316
aI25
aa(lp3595
I317
aI25
aa(lp3596
I318
aI25
aa(lp3597
I319
aI25
aa(lp3598
I375
aI25
aa(lp3599
I376
aI25
aa(lp3600
I377
aI26
aa(lp3601
I378
aI26
aa(lp3602
I379
aI27
aa(lp3603
I380
aI27
aa(lp3604
I381
aI27
aa(lp3605
I382
aI39
aa(lp3606
I383
aI39
aa(lp3607
I384
aI40
aa(lp3608
I385
aI40
aa(lp3609
I386
aI40
aa(lp3610
I387
aI41
aa(lp3611
I388
aI41
aa(lp3612
I389
aI42
aa(lp3613
I445
aI30
aa(lp3614
I446
aI30
aa(lp3615
I447
aI29
aa(lp3616
I448
aI29
aa(lp3617
I449
aI29
aa(lp3618
I450
aI29
aa(lp3619
I451
aI28
aa(lp3620
I452
aI17
aa(lp3621
I453
aI17
aa(lp3622
I454
aI16
aa(lp3623
I455
aI16
aa(lp3624
I456
aI16
aa(lp3625
I457
aI15
aa(lp3626
I458
aI15
aa(lp3627
I459
aI15
aa(lp3628
I470
aI14
aa(lp3629
I471
aI14
aa(lp3630
I472
aI14
aa(lp3631
I473
aI14
aa(lp3632
I474
aI14
aa(lp3633
I475
aI14
aa(lp3634
I476
aI14
aa(lp3635
I477
aI25
aa(lp3636
I478
aI25
aa(lp3637
I479
aI25
aa(lp3638
I480
aI25
aa(lp3639
I481
aI25
aa(lp3640
I482
aI25
aa(lp3641
I483
aI25
aa(lp3642
I484
aI24
aa(lp3643
I540
aI24
aa(lp3644
I541
aI24
aa(lp3645
I542
aI24
aa(lp3646
I543
aI24
aa(lp3647
I544
aI24
aa(lp3648
I545
aI24
aa(lp3649
I546
aI24
aa(lp3650
I547
aI24
aa(lp3651
I548
aI24
aa(lp3652
I549
aI24
aa(lp3653
I550
aI24
aa(lp3654
I551
aI24
aa(lp3655
I552
aI24
aa(lp3656
I553
aI24
aa(lp3657
I554
aI35
aatp3658
Rp3659
sI24
g71
((lp3660
(lp3661
I0
aI13
aa(lp3662
I1
aI13
aa(lp3663
I2
aI14
aa(lp3664
I3
aI14
aa(lp3665
I4
aI15
aa(lp3666
I5
aI15
aa(lp3667
I6
aI16
aa(lp3668
I7
aI16
aa(lp3669
I8
aI17
aa(lp3670
I9
aI17
aa(lp3671
I10
aI18
aa(lp3672
I11
aI18
aa(lp3673
I12
aI19
aa(lp3674
I13
aI19
aa(lp3675
I14
aI20
aa(lp3676
I84
aI20
aa(lp3677
I140
aI19
aa(lp3678
I141
aI19
aa(lp3679
I142
aI18
aa(lp3680
I143
aI18
aa(lp3681
I144
aI18
aa(lp3682
I145
aI18
aa(lp3683
I146
aI17
aa(lp3684
I147
aI17
aa(lp3685
I148
aI17
aa(lp3686
I149
aI16
aa(lp3687
I150
aI16
aa(lp3688
I151
aI16
aa(lp3689
I152
aI15
aa(lp3690
I153
aI15
aa(lp3691
I154
aI15
aa(lp3692
I165
aI15
aa(lp3693
I166
aI15
aa(lp3694
I167
aI15
aa(lp3695
I168
aI15
aa(lp3696
I169
aI15
aa(lp3697
I170
aI15
aa(lp3698
I171
aI15
aa(lp3699
I172
aI26
aa(lp3700
I173
aI26
aa(lp3701
I174
aI26
aa(lp3702
I175
aI26
aa(lp3703
I176
aI26
aa(lp3704
I177
aI26
aa(lp3705
I178
aI26
aa(lp3706
I179
aI26
aa(lp3707
I235
aI14
aa(lp3708
I236
aI14
aa(lp3709
I237
aI14
aa(lp3710
I238
aI14
aa(lp3711
I239
aI14
aa(lp3712
I240
aI14
aa(lp3713
I241
aI14
aa(lp3714
I242
aI2
aa(lp3715
I243
aI2
aa(lp3716
I244
aI2
aa(lp3717
I245
aI2
aa(lp3718
I246
aI2
aa(lp3719
I247
aI2
aa(lp3720
I248
aI2
aa(lp3721
I249
aI2
aa(lp3722
I305
aI2
aa(lp3723
I306
aI2
aa(lp3724
I307
aI2
aa(lp3725
I308
aI2
aa(lp3726
I309
aI14
aa(lp3727
I310
aI14
aa(lp3728
I311
aI14
aa(lp3729
I312
aI14
aa(lp3730
I313
aI14
aa(lp3731
I314
aI15
aa(lp3732
I315
aI26
aa(lp3733
I316
aI26
aa(lp3734
I317
aI26
aa(lp3735
I318
aI26
aa(lp3736
I319
aI38
aa(lp3737
I375
aI27
aa(lp3738
I376
aI27
aa(lp3739
I377
aI27
aa(lp3740
I378
aI28
aa(lp3741
I379
aI28
aa(lp3742
I380
aI28
aa(lp3743
I381
aI28
aa(lp3744
I382
aI18
aa(lp3745
I383
aI18
aa(lp3746
I384
aI18
aa(lp3747
I385
aI18
aa(lp3748
I386
aI19
aa(lp3749
I387
aI19
aa(lp3750
I388
aI19
aa(lp3751
I389
aI20
aa(lp3752
I445
aI19
aa(lp3753
I446
aI19
aa(lp3754
I447
aI18
aa(lp3755
I448
aI18
aa(lp3756
I449
aI18
aa(lp3757
I450
aI18
aa(lp3758
I451
aI17
aa(lp3759
I452
aI17
aa(lp3760
I453
aI17
aa(lp3761
I454
aI16
aa(lp3762
I455
aI16
aa(lp3763
I456
aI16
aa(lp3764
I457
aI15
aa(lp3765
I458
aI15
aa(lp3766
I459
aI15
aa(lp3767
I470
aI15
aa(lp3768
I471
aI15
aa(lp3769
I472
aI15
aa(lp3770
I473
aI15
aa(lp3771
I474
aI15
aa(lp3772
I475
aI15
aa(lp3773
I476
aI15
aa(lp3774
I477
aI26
aa(lp3775
I478
aI26
aa(lp3776
I479
aI26
aa(lp3777
I480
aI26
aa(lp3778
I481
aI26
aa(lp3779
I482
aI26
aa(lp3780
I483
aI26
aa(lp3781
I484
aI26
aa(lp3782
I540
aI15
aa(lp3783
I541
aI15
aa(lp3784
I542
aI15
aa(lp3785
I543
aI15
aa(lp3786
I544
aI15
aa(lp3787
I545
aI15
aa(lp3788
I546
aI15
aa(lp3789
I547
aI15
aa(lp3790
I548
aI15
aa(lp3791
I549
aI15
aa(lp3792
I550
aI15
aa(lp3793
I551
aI15
aa(lp3794
I552
aI15
aa(lp3795
I553
aI15
aa(lp3796
I554
aI15
aatp3797
Rp3798
sI25
g71
((lp3799
(lp3800
I0
aI14
aa(lp3801
I1
aI14
aa(lp3802
I2
aI15
aa(lp3803
I3
aI15
aa(lp3804
I4
aI16
aa(lp3805
I5
aI16
aa(lp3806
I6
aI17
aa(lp3807
I7
aI17
aa(lp3808
I8
aI18
aa(lp3809
I9
aI18
aa(lp3810
I10
aI19
aa(lp3811
I11
aI19
aa(lp3812
I12
aI20
aa(lp3813
I13
aI20
aa(lp3814
I14
aI21
aa(lp3815
I84
aI21
aa(lp3816
I140
aI20
aa(lp3817
I141
aI20
aa(lp3818
I142
aI19
aa(lp3819
I143
aI19
aa(lp3820
I144
aI18
aa(lp3821
I145
aI18
aa(lp3822
I146
aI18
aa(lp3823
I147
aI17
aa(lp3824
I148
aI17
aa(lp3825
I149
aI16
aa(lp3826
I150
aI16
aa(lp3827
I151
aI16
aa(lp3828
I152
aI15
aa(lp3829
I153
aI15
aa(lp3830
I154
aI14
aa(lp3831
I165
aI14
aa(lp3832
I166
aI14
aa(lp3833
I167
aI14
aa(lp3834
I168
aI14
aa(lp3835
I169
aI14
aa(lp3836
I170
aI14
aa(lp3837
I171
aI14
aa(lp3838
I172
aI26
aa(lp3839
I173
aI26
aa(lp3840
I174
aI26
aa(lp3841
I175
aI26
aa(lp3842
I176
aI26
aa(lp3843
I177
aI26
aa(lp3844
I178
aI26
aa(lp3845
I179
aI27
aa(lp3846
I235
aI15
aa(lp3847
I236
aI15
aa(lp3848
I237
aI15
aa(lp3849
I238
aI15
aa(lp3850
I239
aI14
aa(lp3851
I240
aI14
aa(lp3852
I241
aI14
aa(lp3853
I242
aI3
aa(lp3854
I243
aI3
aa(lp3855
I244
aI2
aa(lp3856
I245
aI2
aa(lp3857
I246
aI2
aa(lp3858
I247
aI2
aa(lp3859
I248
aI2
aa(lp3860
I249
aI1
aa(lp3861
I305
aI1
aa(lp3862
I306
aI1
aa(lp3863
I307
aI1
aa(lp3864
I308
aI2
aa(lp3865
I309
aI13
aa(lp3866
I310
aI13
aa(lp3867
I311
aI13
aa(lp3868
I312
aI14
aa(lp3869
I313
aI14
aa(lp3870
I314
aI14
aa(lp3871
I315
aI25
aa(lp3872
I316
aI26
aa(lp3873
I317
aI26
aa(lp3874
I318
aI26
aa(lp3875
I319
aI37
aa(lp3876
I375
aI37
aa(lp3877
I376
aI37
aa(lp3878
I377
aI37
aa(lp3879
I378
aI38
aa(lp3880
I379
aI38
aa(lp3881
I380
aI38
aa(lp3882
I381
aI39
aa(lp3883
I382
aI39
aa(lp3884
I383
aI39
aa(lp3885
I384
aI40
aa(lp3886
I385
aI40
aa(lp3887
I386
aI40
aa(lp3888
I387
aI41
aa(lp3889
I388
aI41
aa(lp3890
I389
aI52
aa(lp3891
I445
aI41
aa(lp3892
I446
aI41
aa(lp3893
I447
aI41
aa(lp3894
I448
aI41
aa(lp3895
I449
aI30
aa(lp3896
I450
aI30
aa(lp3897
I451
aI30
aa(lp3898
I452
aI30
aa(lp3899
I453
aI30
aa(lp3900
I454
aI19
aa(lp3901
I455
aI19
aa(lp3902
I456
aI19
aa(lp3903
I457
aI19
aa(lp3904
I458
aI19
aa(lp3905
I459
aI8
aa(lp3906
I470
aI7
aa(lp3907
I471
aI7
aa(lp3908
I472
aI7
aa(lp3909
I473
aI7
aa(lp3910
I474
aI17
aa(lp3911
I475
aI17
aa(lp3912
I476
aI17
aa(lp3913
I477
aI17
aa(lp3914
I478
aI17
aa(lp3915
I479
aI16
aa(lp3916
I480
aI27
aa(lp3917
I481
aI27
aa(lp3918
I482
aI27
aa(lp3919
I483
aI27
aa(lp3920
I484
aI37
aa(lp3921
I540
aI36
aa(lp3922
I541
aI36
aa(lp3923
I542
aI36
aa(lp3924
I543
aI36
aa(lp3925
I544
aI36
aa(lp3926
I545
aI36
aa(lp3927
I546
aI36
aa(lp3928
I547
aI35
aa(lp3929
I548
aI35
aa(lp3930
I549
aI35
aa(lp3931
I550
aI35
aa(lp3932
I551
aI35
aa(lp3933
I552
aI35
aa(lp3934
I553
aI35
aa(lp3935
I554
aI35
aatp3936
Rp3937
sI26
g71
((lp3938
(lp3939
I0
aI15
aa(lp3940
I1
aI15
aa(lp3941
I2
aI15
aa(lp3942
I3
aI15
aa(lp3943
I4
aI16
aa(lp3944
I5
aI16
aa(lp3945
I6
aI16
aa(lp3946
I7
aI16
aa(lp3947
I8
aI16
aa(lp3948
I9
aI17
aa(lp3949
I10
aI17
aa(lp3950
I11
aI17
aa(lp3951
I12
aI17
aa(lp3952
I13
aI17
aa(lp3953
I14
aI18
aa(lp3954
I84
aI18
aa(lp3955
I140
aI17
aa(lp3956
I141
aI17
aa(lp3957
I142
aI16
aa(lp3958
I143
aI16
aa(lp3959
I144
aI15
aa(lp3960
I145
aI15
aa(lp3961
I146
aI15
aa(lp3962
I147
aI14
aa(lp3963
I148
aI14
aa(lp3964
I149
aI13
aa(lp3965
I150
aI13
aa(lp3966
I151
aI13
aa(lp3967
I152
aI12
aa(lp3968
I153
aI12
aa(lp3969
I154
aI11
aa(lp3970
I165
aI11
aa(lp3971
I166
aI11
aa(lp3972
I167
aI11
aa(lp3973
I168
aI22
aa(lp3974
I169
aI22
aa(lp3975
I170
aI22
aa(lp3976
I171
aI22
aa(lp3977
I172
aI33
aa(lp3978
I173
aI33
aa(lp3979
I174
aI33
aa(lp3980
I175
aI33
aa(lp3981
I176
aI44
aa(lp3982
I177
aI44
aa(lp3983
I178
aI44
aa(lp3984
I179
aI44
aa(lp3985
I235
aI33
aa(lp3986
I236
aI33
aa(lp3987
I237
aI33
aa(lp3988
I238
aI22
aa(lp3989
I239
aI22
aa(lp3990
I240
aI22
aa(lp3991
I241
aI22
aa(lp3992
I242
aI12
aa(lp3993
I243
aI12
aa(lp3994
I244
aI12
aa(lp3995
I245
aI12
aa(lp3996
I246
aI1
aa(lp3997
I247
aI1
aa(lp3998
I248
aI1
aa(lp3999
I249
aI1
aa(lp4000
I305
aI1
aa(lp4001
I306
aI1
aa(lp4002
I307
aI12
aa(lp4003
I308
aI12
aa(lp4004
I309
aI12
aa(lp4005
I310
aI12
aa(lp4006
I311
aI23
aa(lp4007
I312
aI23
aa(lp4008
I313
aI34
aa(lp4009
I314
aI34
aa(lp4010
I315
aI34
aa(lp4011
I316
aI45
aa(lp4012
I317
aI45
aa(lp4013
I318
aI45
aa(lp4014
I319
aI45
aa(lp4015
I375
aI34
aa(lp4016
I376
aI35
aa(lp4017
I377
aI35
aa(lp4018
I378
aI36
aa(lp4019
I379
aI25
aa(lp4020
I380
aI26
aa(lp4021
I381
aI26
aa(lp4022
I382
aI27
aa(lp4023
I383
aI27
aa(lp4024
I384
aI17
aa(lp4025
I385
aI17
aa(lp4026
I386
aI18
aa(lp4027
I387
aI18
aa(lp4028
I388
aI19
aa(lp4029
I389
aI8
aa(lp4030
I445
aI8
aa(lp4031
I446
aI8
aa(lp4032
I447
aI8
aa(lp4033
I448
aI8
aa(lp4034
I449
aI8
aa(lp4035
I450
aI8
aa(lp4036
I451
aI8
aa(lp4037
I452
aI8
aa(lp4038
I453
aI8
aa(lp4039
I454
aI8
aa(lp4040
I455
aI8
aa(lp4041
I456
aI8
aa(lp4042
I457
aI8
aa(lp4043
I458
aI8
aa(lp4044
I459
aI8
aa(lp4045
I470
aI7
aa(lp4046
I471
aI7
aa(lp4047
I472
aI17
aa(lp4048
I473
aI17
aa(lp4049
I474
aI16
aa(lp4050
I475
aI16
aa(lp4051
I476
aI26
aa(lp4052
I477
aI26
aa(lp4053
I478
aI36
aa(lp4054
I479
aI36
aa(lp4055
I480
aI35
aa(lp4056
I481
aI46
aa(lp4057
I482
aI45
aa(lp4058
I483
aI45
aa(lp4059
I484
aI44
aa(lp4060
I540
aI33
aa(lp4061
I541
aI33
aa(lp4062
I542
aI33
aa(lp4063
I543
aI33
aa(lp4064
I544
aI33
aa(lp4065
I545
aI33
aa(lp4066
I546
aI33
aa(lp4067
I547
aI34
aa(lp4068
I548
aI34
aa(lp4069
I549
aI34
aa(lp4070
I550
aI34
aa(lp4071
I551
aI34
aa(lp4072
I552
aI34
aa(lp4073
I553
aI34
aa(lp4074
I554
aI23
aatp4075
Rp4076
sI27
g71
((lp4077
(lp4078
I0
aI16
aa(lp4079
I1
aI16
aa(lp4080
I2
aI16
aa(lp4081
I3
aI17
aa(lp4082
I4
aI17
aa(lp4083
I5
aI17
aa(lp4084
I6
aI18
aa(lp4085
I7
aI18
aa(lp4086
I8
aI18
aa(lp4087
I9
aI19
aa(lp4088
I10
aI19
aa(lp4089
I11
aI19
aa(lp4090
I12
aI20
aa(lp4091
I13
aI20
aa(lp4092
I14
aI21
aa(lp4093
I84
aI21
aa(lp4094
I140
aI20
aa(lp4095
I141
aI20
aa(lp4096
I142
aI19
aa(lp4097
I143
aI19
aa(lp4098
I144
aI18
aa(lp4099
I145
aI18
aa(lp4100
I146
aI18
aa(lp4101
I147
aI17
aa(lp4102
I148
aI17
aa(lp4103
I149
aI16
aa(lp4104
I150
aI16
aa(lp4105
I151
aI16
aa(lp4106
I152
aI15
aa(lp4107
I153
aI15
aa(lp4108
I154
aI14
aa(lp4109
I165
aI13
aa(lp4110
I166
aI13
aa(lp4111
I167
aI13
aa(lp4112
I168
aI13
aa(lp4113
I169
aI13
aa(lp4114
I170
aI24
aa(lp4115
I171
aI24
aa(lp4116
I172
aI23
aa(lp4117
I173
aI23
aa(lp4118
I174
aI34
aa(lp4119
I175
aI34
aa(lp4120
I176
aI34
aa(lp4121
I177
aI34
aa(lp4122
I178
aI34
aa(lp4123
I179
aI45
aa(lp4124
I235
aI34
aa(lp4125
I236
aI34
aa(lp4126
I237
aI35
aa(lp4127
I238
aI35
aa(lp4128
I239
aI25
aa(lp4129
I240
aI25
aa(lp4130
I241
aI26
aa(lp4131
I242
aI26
aa(lp4132
I243
aI27
aa(lp4133
I244
aI16
aa(lp4134
I245
aI17
aa(lp4135
I246
aI17
aa(lp4136
I247
aI18
aa(lp4137
I248
aI18
aa(lp4138
I249
aI8
aa(lp4139
I305
aI7
aa(lp4140
I306
aI7
aa(lp4141
I307
aI6
aa(lp4142
I308
aI17
aa(lp4143
I309
aI16
aa(lp4144
I310
aI16
aa(lp4145
I311
aI15
aa(lp4146
I312
aI26
aa(lp4147
I313
aI25
aa(lp4148
I314
aI25
aa(lp4149
I315
aI24
aa(lp4150
I316
aI35
aa(lp4151
I317
aI34
aa(lp4152
I318
aI34
aa(lp4153
I319
aI33
aa(lp4154
I375
aI33
aa(lp4155
I376
aI34
aa(lp4156
I377
aI34
aa(lp4157
I378
aI35
aa(lp4158
I379
aI36
aa(lp4159
I380
aI36
aa(lp4160
I381
aI37
aa(lp4161
I382
aI37
aa(lp4162
I383
aI38
aa(lp4163
I384
aI38
aa(lp4164
I385
aI39
aa(lp4165
I386
aI40
aa(lp4166
I387
aI40
aa(lp4167
I388
aI41
aa(lp4168
I389
aI52
aa(lp4169
I445
aI40
aa(lp4170
I446
aI40
aa(lp4171
I447
aI40
aa(lp4172
I448
aI39
aa(lp4173
I449
aI28
aa(lp4174
I450
aI28
aa(lp4175
I451
aI28
aa(lp4176
I452
aI27
aa(lp4177
I453
aI27
aa(lp4178
I454
aI16
aa(lp4179
I455
aI16
aa(lp4180
I456
aI15
aa(lp4181
I457
aI15
aa(lp4182
I458
aI15
aa(lp4183
I459
aI4
aa(lp4184
I470
aI3
aa(lp4185
I471
aI3
aa(lp4186
I472
aI3
aa(lp4187
I473
aI14
aa(lp4188
I474
aI13
aa(lp4189
I475
aI13
aa(lp4190
I476
aI13
aa(lp4191
I477
aI24
aa(lp4192
I478
aI24
aa(lp4193
I479
aI23
aa(lp4194
I480
aI23
aa(lp4195
I481
aI34
aa(lp4196
I482
aI34
aa(lp4197
I483
aI34
aa(lp4198
I484
aI33
aa(lp4199
I540
aI22
aa(lp4200
I541
aI22
aa(lp4201
I542
aI23
aa(lp4202
I543
aI23
aa(lp4203
I544
aI23
aa(lp4204
I545
aI23
aa(lp4205
I546
aI24
aa(lp4206
I547
aI13
aa(lp4207
I548
aI14
aa(lp4208
I549
aI14
aa(lp4209
I550
aI14
aa(lp4210
I551
aI15
aa(lp4211
I552
aI15
aa(lp4212
I553
aI15
aa(lp4213
I554
aI15
aatp4214
Rp4215
sI28
g71
((lp4216
(lp4217
I0
aI17
aa(lp4218
I1
aI17
aa(lp4219
I2
aI17
aa(lp4220
I3
aI18
aa(lp4221
I4
aI18
aa(lp4222
I5
aI18
aa(lp4223
I6
aI18
aa(lp4224
I7
aI19
aa(lp4225
I8
aI19
aa(lp4226
I9
aI19
aa(lp4227
I10
aI19
aa(lp4228
I11
aI20
aa(lp4229
I12
aI20
aa(lp4230
I13
aI20
aa(lp4231
I14
aI21
aa(lp4232
I84
aI21
aa(lp4233
I140
aI20
aa(lp4234
I141
aI20
aa(lp4235
I142
aI19
aa(lp4236
I143
aI19
aa(lp4237
I144
aI18
aa(lp4238
I145
aI18
aa(lp4239
I146
aI18
aa(lp4240
I147
aI17
aa(lp4241
I148
aI17
aa(lp4242
I149
aI16
aa(lp4243
I150
aI16
aa(lp4244
I151
aI16
aa(lp4245
I152
aI15
aa(lp4246
I153
aI15
aa(lp4247
I154
aI14
aa(lp4248
I165
aI14
aa(lp4249
I166
aI14
aa(lp4250
I167
aI14
aa(lp4251
I168
aI14
aa(lp4252
I169
aI14
aa(lp4253
I170
aI14
aa(lp4254
I171
aI14
aa(lp4255
I172
aI26
aa(lp4256
I173
aI26
aa(lp4257
I174
aI26
aa(lp4258
I175
aI26
aa(lp4259
I176
aI26
aa(lp4260
I177
aI26
aa(lp4261
I178
aI26
aa(lp4262
I179
aI27
aa(lp4263
I235
aI15
aa(lp4264
I236
aI15
aa(lp4265
I237
aI15
aa(lp4266
I238
aI15
aa(lp4267
I239
aI14
aa(lp4268
I240
aI14
aa(lp4269
I241
aI14
aa(lp4270
I242
aI14
aa(lp4271
I243
aI14
aa(lp4272
I244
aI13
aa(lp4273
I245
aI13
aa(lp4274
I246
aI13
aa(lp4275
I247
aI13
aa(lp4276
I248
aI13
aa(lp4277
I249
aI12
aa(lp4278
I305
aI12
aa(lp4279
I306
aI12
aa(lp4280
I307
aI12
aa(lp4281
I308
aI13
aa(lp4282
I309
aI13
aa(lp4283
I310
aI13
aa(lp4284
I311
aI13
aa(lp4285
I312
aI25
aa(lp4286
I313
aI25
aa(lp4287
I314
aI25
aa(lp4288
I315
aI25
aa(lp4289
I316
aI26
aa(lp4290
I317
aI26
aa(lp4291
I318
aI26
aa(lp4292
I319
aI26
aa(lp4293
I375
aI15
aa(lp4294
I376
aI15
aa(lp4295
I377
aI15
aa(lp4296
I378
aI16
aa(lp4297
I379
aI16
aa(lp4298
I380
aI16
aa(lp4299
I381
aI17
aa(lp4300
I382
aI17
aa(lp4301
I383
aI17
aa(lp4302
I384
aI18
aa(lp4303
I385
aI18
aa(lp4304
I386
aI18
aa(lp4305
I387
aI19
aa(lp4306
I388
aI19
aa(lp4307
I389
aI19
aa(lp4308
I445
aI18
aa(lp4309
I446
aI18
aa(lp4310
I447
aI18
aa(lp4311
I448
aI17
aa(lp4312
I449
aI17
aa(lp4313
I450
aI17
aa(lp4314
I451
aI17
aa(lp4315
I452
aI16
aa(lp4316
I453
aI16
aa(lp4317
I454
aI16
aa(lp4318
I455
aI16
aa(lp4319
I456
aI15
aa(lp4320
I457
aI15
aa(lp4321
I458
aI15
aa(lp4322
I459
aI15
aa(lp4323
I470
aI15
aa(lp4324
I471
aI15
aa(lp4325
I472
aI15
aa(lp4326
I473
aI15
aa(lp4327
I474
aI15
aa(lp4328
I475
aI15
aa(lp4329
I476
aI15
aa(lp4330
I477
aI26
aa(lp4331
I478
aI26
aa(lp4332
I479
aI26
aa(lp4333
I480
aI26
aa(lp4334
I481
aI26
aa(lp4335
I482
aI26
aa(lp4336
I483
aI26
aa(lp4337
I484
aI26
aa(lp4338
I540
aI15
aa(lp4339
I541
aI15
aa(lp4340
I542
aI15
aa(lp4341
I543
aI15
aa(lp4342
I544
aI15
aa(lp4343
I545
aI15
aa(lp4344
I546
aI15
aa(lp4345
I547
aI15
aa(lp4346
I548
aI15
aa(lp4347
I549
aI15
aa(lp4348
I550
aI15
aa(lp4349
I551
aI15
aa(lp4350
I552
aI15
aa(lp4351
I553
aI15
aa(lp4352
I554
aI15
aatp4353
Rp4354
sI29
g71
((lp4355
(lp4356
I0
aI18
aa(lp4357
I1
aI18
aa(lp4358
I2
aI18
aa(lp4359
I3
aI18
aa(lp4360
I4
aI19
aa(lp4361
I5
aI19
aa(lp4362
I6
aI19
aa(lp4363
I7
aI19
aa(lp4364
I8
aI19
aa(lp4365
I9
aI19
aa(lp4366
I10
aI20
aa(lp4367
I11
aI20
aa(lp4368
I12
aI20
aa(lp4369
I13
aI20
aa(lp4370
I14
aI20
aa(lp4371
I70
aI20
aa(lp4372
I71
aI20
aa(lp4373
I72
aI20
aa(lp4374
I73
aI20
aa(lp4375
I74
aI20
aa(lp4376
I75
aI20
aa(lp4377
I76
aI20
aa(lp4378
I77
aI20
aa(lp4379
I78
aI20
aa(lp4380
I79
aI20
aa(lp4381
I80
aI20
aa(lp4382
I81
aI20
aa(lp4383
I82
aI20
aa(lp4384
I83
aI20
aa(lp4385
I84
aI20
aa(lp4386
I140
aI19
aa(lp4387
I141
aI19
aa(lp4388
I142
aI18
aa(lp4389
I143
aI29
aa(lp4390
I144
aI28
aa(lp4391
I145
aI28
aa(lp4392
I146
aI28
aa(lp4393
I147
aI38
aa(lp4394
I148
aI38
aa(lp4395
I149
aI37
aa(lp4396
I150
aI37
aa(lp4397
I151
aI48
aa(lp4398
I152
aI47
aa(lp4399
I153
aI47
aa(lp4400
I154
aI46
aa(lp4401
I165
aI46
aa(lp4402
I166
aI46
aa(lp4403
I167
aI47
aa(lp4404
I168
aI47
aa(lp4405
I169
aI47
aa(lp4406
I170
aI48
aa(lp4407
I171
aI48
aa(lp4408
I172
aI48
aa(lp4409
I173
aI49
aa(lp4410
I174
aI49
aa(lp4411
I175
aI49
aa(lp4412
I176
aI49
aa(lp4413
I177
aI50
aa(lp4414
I178
aI50
aa(lp4415
I179
aI50
aa(lp4416
I235
aI38
aa(lp4417
I236
aI38
aa(lp4418
I237
aI38
aa(lp4419
I238
aI37
aa(lp4420
I239
aI26
aa(lp4421
I240
aI26
aa(lp4422
I241
aI26
aa(lp4423
I242
aI25
aa(lp4424
I243
aI25
aa(lp4425
I244
aI14
aa(lp4426
I245
aI14
aa(lp4427
I246
aI13
aa(lp4428
I247
aI13
aa(lp4429
I248
aI13
aa(lp4430
I249
aI2
aa(lp4431
I305
aI2
aa(lp4432
I306
aI2
aa(lp4433
I307
aI3
aa(lp4434
I308
aI14
aa(lp4435
I309
aI14
aa(lp4436
I310
aI15
aa(lp4437
I311
aI15
aa(lp4438
I312
aI26
aa(lp4439
I313
aI27
aa(lp4440
I314
aI27
aa(lp4441
I315
aI27
aa(lp4442
I316
aI38
aa(lp4443
I317
aI39
aa(lp4444
I318
aI39
aa(lp4445
I319
aI39
aa(lp4446
I375
aI39
aa(lp4447
I376
aI39
aa(lp4448
I377
aI39
aa(lp4449
I378
aI39
aa(lp4450
I379
aI40
aa(lp4451
I380
aI40
aa(lp4452
I381
aI40
aa(lp4453
I382
aI40
aa(lp4454
I383
aI40
aa(lp4455
I384
aI41
aa(lp4456
I385
aI41
aa(lp4457
I386
aI41
aa(lp4458
I387
aI41
aa(lp4459
I388
aI41
aa(lp4460
I389
aI52
aa(lp4461
I445
aI41
aa(lp4462
I446
aI41
aa(lp4463
I447
aI41
aa(lp4464
I448
aI41
aa(lp4465
I449
aI30
aa(lp4466
I450
aI30
aa(lp4467
I451
aI30
aa(lp4468
I452
aI30
aa(lp4469
I453
aI30
aa(lp4470
I454
aI19
aa(lp4471
I455
aI19
aa(lp4472
I456
aI19
aa(lp4473
I457
aI19
aa(lp4474
I458
aI19
aa(lp4475
I459
aI8
aa(lp4476
I470
aI7
aa(lp4477
I471
aI7
aa(lp4478
I472
aI7
aa(lp4479
I473
aI18
aa(lp4480
I474
aI18
aa(lp4481
I475
aI18
aa(lp4482
I476
aI18
aa(lp4483
I477
aI29
aa(lp4484
I478
aI29
aa(lp4485
I479
aI29
aa(lp4486
I480
aI29
aa(lp4487
I481
aI40
aa(lp4488
I482
aI40
aa(lp4489
I483
aI40
aa(lp4490
I484
aI40
aa(lp4491
I540
aI40
aa(lp4492
I541
aI40
aa(lp4493
I542
aI40
aa(lp4494
I543
aI40
aa(lp4495
I544
aI41
aa(lp4496
I545
aI41
aa(lp4497
I546
aI41
aa(lp4498
I547
aI41
aa(lp4499
I548
aI41
aa(lp4500
I549
aI41
aa(lp4501
I550
aI42
aa(lp4502
I551
aI42
aa(lp4503
I552
aI42
aa(lp4504
I553
aI42
aa(lp4505
I554
aI53
aatp4506
Rp4507
sI30
g71
((lp4508
(lp4509
I0
aI19
aa(lp4510
I1
aI19
aa(lp4511
I2
aI19
aa(lp4512
I3
aI19
aa(lp4513
I4
aI19
aa(lp4514
I5
aI19
aa(lp4515
I6
aI19
aa(lp4516
I7
aI20
aa(lp4517
I8
aI20
aa(lp4518
I9
aI20
aa(lp4519
I10
aI20
aa(lp4520
I11
aI20
aa(lp4521
I12
aI20
aa(lp4522
I13
aI20
aa(lp4523
I14
aI20
aa(lp4524
I70
aI20
aa(lp4525
I71
aI20
aa(lp4526
I72
aI20
aa(lp4527
I73
aI20
aa(lp4528
I74
aI20
aa(lp4529
I75
aI20
aa(lp4530
I76
aI20
aa(lp4531
I77
aI20
aa(lp4532
I78
aI20
aa(lp4533
I79
aI20
aa(lp4534
I80
aI20
aa(lp4535
I81
aI20
aa(lp4536
I82
aI20
aa(lp4537
I83
aI20
aa(lp4538
I84
aI20
aa(lp4539
I140
aI19
aa(lp4540
I141
aI19
aa(lp4541
I142
aI18
aa(lp4542
I143
aI18
aa(lp4543
I144
aI18
aa(lp4544
I145
aI18
aa(lp4545
I146
aI17
aa(lp4546
I147
aI17
aa(lp4547
I148
aI17
aa(lp4548
I149
aI16
aa(lp4549
I150
aI16
aa(lp4550
I151
aI16
aa(lp4551
I152
aI15
aa(lp4552
I153
aI15
aa(lp4553
I154
aI15
aa(lp4554
I165
aI14
aa(lp4555
I166
aI14
aa(lp4556
I167
aI14
aa(lp4557
I168
aI25
aa(lp4558
I169
aI24
aa(lp4559
I170
aI24
aa(lp4560
I171
aI24
aa(lp4561
I172
aI35
aa(lp4562
I173
aI35
aa(lp4563
I174
aI34
aa(lp4564
I175
aI34
aa(lp4565
I176
aI45
aa(lp4566
I177
aI45
aa(lp4567
I178
aI45
aa(lp4568
I179
aI44
aa(lp4569
I235
aI33
aa(lp4570
I236
aI33
aa(lp4571
I237
aI33
aa(lp4572
I238
aI22
aa(lp4573
I239
aI22
aa(lp4574
I240
aI22
aa(lp4575
I241
aI22
aa(lp4576
I242
aI12
aa(lp4577
I243
aI12
aa(lp4578
I244
aI12
aa(lp4579
I245
aI12
aa(lp4580
I246
aI1
aa(lp4581
I247
aI1
aa(lp4582
I248
aI1
aa(lp4583
I249
aI1
aa(lp4584
I305
aI1
aa(lp4585
I306
aI1
aa(lp4586
I307
aI12
aa(lp4587
I308
aI12
aa(lp4588
I309
aI12
aa(lp4589
I310
aI12
aa(lp4590
I311
aI23
aa(lp4591
I312
aI23
aa(lp4592
I313
aI34
aa(lp4593
I314
aI34
aa(lp4594
I315
aI34
aa(lp4595
I316
aI45
aa(lp4596
I317
aI45
aa(lp4597
I318
aI45
aa(lp4598
I319
aI45
aa(lp4599
I375
aI45
aa(lp4600
I376
aI45
aa(lp4601
I377
aI45
aa(lp4602
I378
aI46
aa(lp4603
I379
aI46
aa(lp4604
I380
aI47
aa(lp4605
I381
aI47
aa(lp4606
I382
aI47
aa(lp4607
I383
aI48
aa(lp4608
I384
aI48
aa(lp4609
I385
aI48
aa(lp4610
I386
aI48
aa(lp4611
I387
aI49
aa(lp4612
I388
aI49
aa(lp4613
I389
aI49
aa(lp4614
I445
aI37
aa(lp4615
I446
aI37
aa(lp4616
I447
aI37
aa(lp4617
I448
aI37
aa(lp4618
I449
aI26
aa(lp4619
I450
aI26
aa(lp4620
I451
aI26
aa(lp4621
I452
aI26
aa(lp4622
I453
aI26
aa(lp4623
I454
aI15
aa(lp4624
I455
aI15
aa(lp4625
I456
aI15
aa(lp4626
I457
aI15
aa(lp4627
I458
aI15
aa(lp4628
I459
aI4
aa(lp4629
I470
aI3
aa(lp4630
I471
aI3
aa(lp4631
I472
aI14
aa(lp4632
I473
aI14
aa(lp4633
I474
aI13
aa(lp4634
I475
aI13
aa(lp4635
I476
aI24
aa(lp4636
I477
aI24
aa(lp4637
I478
aI35
aa(lp4638
I479
aI34
aa(lp4639
I480
aI34
aa(lp4640
I481
aI45
aa(lp4641
I482
aI45
aa(lp4642
I483
aI45
aa(lp4643
I484
aI44
aa(lp4644
I540
aI33
aa(lp4645
I541
aI33
aa(lp4646
I542
aI34
aa(lp4647
I543
aI34
aa(lp4648
I544
aI23
aa(lp4649
I545
aI23
aa(lp4650
I546
aI24
aa(lp4651
I547
aI24
aa(lp4652
I548
aI25
aa(lp4653
I549
aI14
aa(lp4654
I550
aI14
aa(lp4655
I551
aI15
aa(lp4656
I552
aI15
aa(lp4657
I553
aI15
aa(lp4658
I554
aI4
aatp4659
Rp4660
sI31
g71
((lp4661
(lp4662
I0
aI20
aa(lp4663
I1
aI20
aa(lp4664
I2
aI20
aa(lp4665
I3
aI20
aa(lp4666
I4
aI20
aa(lp4667
I5
aI20
aa(lp4668
I6
aI20
aa(lp4669
I7
aI20
aa(lp4670
I8
aI20
aa(lp4671
I9
aI20
aa(lp4672
I10
aI20
aa(lp4673
I11
aI20
aa(lp4674
I12
aI20
aa(lp4675
I13
aI20
aa(lp4676
I14
aI20
aa(lp4677
I84
aI20
aa(lp4678
I140
aI19
aa(lp4679
I141
aI19
aa(lp4680
I142
aI18
aa(lp4681
I143
aI18
aa(lp4682
I144
aI18
aa(lp4683
I145
aI18
aa(lp4684
I146
aI17
aa(lp4685
I147
aI17
aa(lp4686
I148
aI17
aa(lp4687
I149
aI16
aa(lp4688
I150
aI16
aa(lp4689
I151
aI16
aa(lp4690
I152
aI15
aa(lp4691
I153
aI15
aa(lp4692
I154
aI15
aa(lp4693
I165
aI14
aa(lp4694
I166
aI14
aa(lp4695
I167
aI14
aa(lp4696
I168
aI25
aa(lp4697
I169
aI24
aa(lp4698
I170
aI24
aa(lp4699
I171
aI24
aa(lp4700
I172
aI35
aa(lp4701
I173
aI35
aa(lp4702
I174
aI34
aa(lp4703
I175
aI34
aa(lp4704
I176
aI45
aa(lp4705
I177
aI45
aa(lp4706
I178
aI45
aa(lp4707
I179
aI44
aa(lp4708
I235
aI33
aa(lp4709
I236
aI33
aa(lp4710
I237
aI33
aa(lp4711
I238
aI33
aa(lp4712
I239
aI22
aa(lp4713
I240
aI22
aa(lp4714
I241
aI22
aa(lp4715
I242
aI23
aa(lp4716
I243
aI23
aa(lp4717
I244
aI12
aa(lp4718
I245
aI12
aa(lp4719
I246
aI12
aa(lp4720
I247
aI12
aa(lp4721
I248
aI12
aa(lp4722
I249
aI1
aa(lp4723
I305
aI1
aa(lp4724
I306
aI1
aa(lp4725
I307
aI12
aa(lp4726
I308
aI12
aa(lp4727
I309
aI12
aa(lp4728
I310
aI12
aa(lp4729
I311
aI23
aa(lp4730
I312
aI23
aa(lp4731
I313
aI34
aa(lp4732
I314
aI34
aa(lp4733
I315
aI34
aa(lp4734
I316
aI45
aa(lp4735
I317
aI45
aa(lp4736
I318
aI45
aa(lp4737
I319
aI45
aa(lp4738
I375
aI45
aa(lp4739
I376
aI46
aa(lp4740
I377
aI46
aa(lp4741
I378
aI47
aa(lp4742
I379
aI47
aa(lp4743
I380
aI48
aa(lp4744
I381
aI48
aa(lp4745
I382
aI49
aa(lp4746
I383
aI49
aa(lp4747
I384
aI50
aa(lp4748
I385
aI50
aa(lp4749
I386
aI51
aa(lp4750
I387
aI51
aa(lp4751
I388
aI52
aa(lp4752
I389
aI52
aa(lp4753
I445
aI41
aa(lp4754
I446
aI41
aa(lp4755
I447
aI41
aa(lp4756
I448
aI41
aa(lp4757
I449
aI30
aa(lp4758
I450
aI30
aa(lp4759
I451
aI30
aa(lp4760
I452
aI30
aa(lp4761
I453
aI30
aa(lp4762
I454
aI19
aa(lp4763
I455
aI19
aa(lp4764
I456
aI19
aa(lp4765
I457
aI19
aa(lp4766
I458
aI19
aa(lp4767
I459
aI8
aa(lp4768
I470
aI7
aa(lp4769
I471
aI7
aa(lp4770
I472
aI17
aa(lp4771
I473
aI17
aa(lp4772
I474
aI16
aa(lp4773
I475
aI16
aa(lp4774
I476
aI26
aa(lp4775
I477
aI26
aa(lp4776
I478
aI36
aa(lp4777
I479
aI36
aa(lp4778
I480
aI35
aa(lp4779
I481
aI46
aa(lp4780
I482
aI45
aa(lp4781
I483
aI45
aa(lp4782
I484
aI44
aa(lp4783
I540
aI44
aa(lp4784
I541
aI45
aa(lp4785
I542
aI46
aa(lp4786
I543
aI46
aa(lp4787
I544
aI47
aa(lp4788
I545
aI47
aa(lp4789
I546
aI48
aa(lp4790
I547
aI49
aa(lp4791
I548
aI50
aa(lp4792
I549
aI50
aa(lp4793
I550
aI51
aa(lp4794
I551
aI52
aa(lp4795
I552
aI52
aa(lp4796
I553
aI53
aa(lp4797
I554
aI53
aatp4798
Rp4799
sI32
g71
((lp4800
(lp4801
I0
aI20
aa(lp4802
I1
aI20
aa(lp4803
I2
aI20
aa(lp4804
I3
aI20
aa(lp4805
I4
aI20
aa(lp4806
I5
aI19
aa(lp4807
I6
aI19
aa(lp4808
I7
aI19
aa(lp4809
I8
aI19
aa(lp4810
I9
aI19
aa(lp4811
I10
aI18
aa(lp4812
I11
aI18
aa(lp4813
I12
aI18
aa(lp4814
I13
aI18
aa(lp4815
I14
aI18
aa(lp4816
I84
aI18
aa(lp4817
I140
aI17
aa(lp4818
I141
aI17
aa(lp4819
I142
aI17
aa(lp4820
I143
aI27
aa(lp4821
I144
aI27
aa(lp4822
I145
aI27
aa(lp4823
I146
aI27
aa(lp4824
I147
aI37
aa(lp4825
I148
aI37
aa(lp4826
I149
aI37
aa(lp4827
I150
aI37
aa(lp4828
I151
aI47
aa(lp4829
I152
aI47
aa(lp4830
I153
aI47
aa(lp4831
I154
aI47
aa(lp4832
I165
aI46
aa(lp4833
I166
aI46
aa(lp4834
I167
aI46
aa(lp4835
I168
aI46
aa(lp4836
I169
aI46
aa(lp4837
I170
aI46
aa(lp4838
I171
aI46
aa(lp4839
I172
aI45
aa(lp4840
I173
aI45
aa(lp4841
I174
aI45
aa(lp4842
I175
aI45
aa(lp4843
I176
aI45
aa(lp4844
I177
aI45
aa(lp4845
I178
aI45
aa(lp4846
I179
aI45
aa(lp4847
I235
aI34
aa(lp4848
I236
aI34
aa(lp4849
I237
aI35
aa(lp4850
I238
aI35
aa(lp4851
I239
aI25
aa(lp4852
I240
aI25
aa(lp4853
I241
aI26
aa(lp4854
I242
aI26
aa(lp4855
I243
aI27
aa(lp4856
I244
aI16
aa(lp4857
I245
aI17
aa(lp4858
I246
aI17
aa(lp4859
I247
aI18
aa(lp4860
I248
aI18
aa(lp4861
I249
aI8
aa(lp4862
I305
aI7
aa(lp4863
I306
aI7
aa(lp4864
I307
aI6
aa(lp4865
I308
aI17
aa(lp4866
I309
aI16
aa(lp4867
I310
aI16
aa(lp4868
I311
aI15
aa(lp4869
I312
aI26
aa(lp4870
I313
aI25
aa(lp4871
I314
aI25
aa(lp4872
I315
aI24
aa(lp4873
I316
aI35
aa(lp4874
I317
aI34
aa(lp4875
I318
aI34
aa(lp4876
I319
aI33
aa(lp4877
I375
aI33
aa(lp4878
I376
aI34
aa(lp4879
I377
aI34
aa(lp4880
I378
aI35
aa(lp4881
I379
aI36
aa(lp4882
I380
aI36
aa(lp4883
I381
aI37
aa(lp4884
I382
aI37
aa(lp4885
I383
aI38
aa(lp4886
I384
aI38
aa(lp4887
I385
aI39
aa(lp4888
I386
aI40
aa(lp4889
I387
aI40
aa(lp4890
I388
aI41
aa(lp4891
I389
aI52
aa(lp4892
I445
aI41
aa(lp4893
I446
aI41
aa(lp4894
I447
aI41
aa(lp4895
I448
aI41
aa(lp4896
I449
aI30
aa(lp4897
I450
aI30
aa(lp4898
I451
aI30
aa(lp4899
I452
aI30
aa(lp4900
I453
aI30
aa(lp4901
I454
aI19
aa(lp4902
I455
aI19
aa(lp4903
I456
aI19
aa(lp4904
I457
aI19
aa(lp4905
I458
aI19
aa(lp4906
I459
aI8
aa(lp4907
I470
aI7
aa(lp4908
I471
aI7
aa(lp4909
I472
aI6
aa(lp4910
I473
aI17
aa(lp4911
I474
aI16
aa(lp4912
I475
aI16
aa(lp4913
I476
aI15
aa(lp4914
I477
aI26
aa(lp4915
I478
aI25
aa(lp4916
I479
aI25
aa(lp4917
I480
aI24
aa(lp4918
I481
aI35
aa(lp4919
I482
aI34
aa(lp4920
I483
aI34
aa(lp4921
I484
aI33
aa(lp4922
I540
aI33
aa(lp4923
I541
aI34
aa(lp4924
I542
aI35
aa(lp4925
I543
aI35
aa(lp4926
I544
aI36
aa(lp4927
I545
aI36
aa(lp4928
I546
aI37
aa(lp4929
I547
aI38
aa(lp4930
I548
aI39
aa(lp4931
I549
aI39
aa(lp4932
I550
aI40
aa(lp4933
I551
aI41
aa(lp4934
I552
aI41
aa(lp4935
I553
aI42
aa(lp4936
I554
aI53
aatp4937
Rp4938
sI33
g71
((lp4939
(lp4940
I0
aI22
aa(lp4941
I1
aI22
aa(lp4942
I2
aI23
aa(lp4943
I3
aI23
aa(lp4944
I4
aI24
aa(lp4945
I5
aI24
aa(lp4946
I6
aI25
aa(lp4947
I7
aI14
aa(lp4948
I8
aI15
aa(lp4949
I9
aI15
aa(lp4950
I10
aI16
aa(lp4951
I11
aI16
aa(lp4952
I12
aI17
aa(lp4953
I13
aI17
aa(lp4954
I14
aI18
aa(lp4955
I84
aI18
aa(lp4956
I140
aI17
aa(lp4957
I141
aI17
aa(lp4958
I142
aI17
aa(lp4959
I143
aI17
aa(lp4960
I144
aI16
aa(lp4961
I145
aI16
aa(lp4962
I146
aI16
aa(lp4963
I147
aI16
aa(lp4964
I148
aI16
aa(lp4965
I149
aI15
aa(lp4966
I150
aI15
aa(lp4967
I151
aI15
aa(lp4968
I152
aI15
aa(lp4969
I153
aI15
aa(lp4970
I154
aI14
aa(lp4971
I165
aI13
aa(lp4972
I166
aI13
aa(lp4973
I167
aI13
aa(lp4974
I168
aI13
aa(lp4975
I169
aI13
aa(lp4976
I170
aI24
aa(lp4977
I171
aI24
aa(lp4978
I172
aI24
aa(lp4979
I173
aI24
aa(lp4980
I174
aI35
aa(lp4981
I175
aI35
aa(lp4982
I176
aI35
aa(lp4983
I177
aI35
aa(lp4984
I178
aI35
aa(lp4985
I179
aI45
aa(lp4986
I235
aI34
aa(lp4987
I236
aI34
aa(lp4988
I237
aI35
aa(lp4989
I238
aI35
aa(lp4990
I239
aI25
aa(lp4991
I240
aI25
aa(lp4992
I241
aI26
aa(lp4993
I242
aI26
aa(lp4994
I243
aI27
aa(lp4995
I244
aI16
aa(lp4996
I245
aI17
aa(lp4997
I246
aI17
aa(lp4998
I247
aI18
aa(lp4999
I248
aI18
aa(lp5000
I249
aI8
aa(lp5001
I305
aI7
aa(lp5002
I306
aI7
aa(lp5003
I307
aI6
aa(lp5004
I308
aI17
aa(lp5005
I309
aI16
aa(lp5006
I310
aI16
aa(lp5007
I311
aI16
aa(lp5008
I312
aI26
aa(lp5009
I313
aI26
aa(lp5010
I314
aI25
aa(lp5011
I315
aI25
aa(lp5012
I316
aI36
aa(lp5013
I317
aI35
aa(lp5014
I318
aI35
aa(lp5015
I319
aI34
aa(lp5016
I375
aI34
aa(lp5017
I376
aI34
aa(lp5018
I377
aI34
aa(lp5019
I378
aI35
aa(lp5020
I379
aI35
aa(lp5021
I380
aI36
aa(lp5022
I381
aI36
aa(lp5023
I382
aI36
aa(lp5024
I383
aI37
aa(lp5025
I384
aI37
aa(lp5026
I385
aI37
aa(lp5027
I386
aI37
aa(lp5028
I387
aI38
aa(lp5029
I388
aI38
aa(lp5030
I389
aI49
aa(lp5031
I445
aI37
aa(lp5032
I446
aI37
aa(lp5033
I447
aI37
aa(lp5034
I448
aI37
aa(lp5035
I449
aI26
aa(lp5036
I450
aI26
aa(lp5037
I451
aI26
aa(lp5038
I452
aI26
aa(lp5039
I453
aI26
aa(lp5040
I454
aI15
aa(lp5041
I455
aI15
aa(lp5042
I456
aI15
aa(lp5043
I457
aI15
aa(lp5044
I458
aI15
aa(lp5045
I459
aI4
aa(lp5046
I470
aI3
aa(lp5047
I471
aI3
aa(lp5048
I472
aI3
aa(lp5049
I473
aI14
aa(lp5050
I474
aI14
aa(lp5051
I475
aI14
aa(lp5052
I476
aI14
aa(lp5053
I477
aI24
aa(lp5054
I478
aI24
aa(lp5055
I479
aI24
aa(lp5056
I480
aI24
aa(lp5057
I481
aI35
aa(lp5058
I482
aI35
aa(lp5059
I483
aI35
aa(lp5060
I484
aI35
aa(lp5061
I554
aI35
aatp5062
Rp5063
sI34
g71
((lp5064
(lp5065
I0
aI23
aa(lp5066
I1
aI24
aa(lp5067
I2
aI24
aa(lp5068
I3
aI25
aa(lp5069
I4
aI25
aa(lp5070
I5
aI26
aa(lp5071
I6
aI26
aa(lp5072
I7
aI16
aa(lp5073
I8
aI16
aa(lp5074
I9
aI17
aa(lp5075
I10
aI17
aa(lp5076
I11
aI18
aa(lp5077
I12
aI18
aa(lp5078
I13
aI19
aa(lp5079
I14
aI19
aa(lp5080
I70
aI19
aa(lp5081
I71
aI19
aa(lp5082
I72
aI19
aa(lp5083
I73
aI19
aa(lp5084
I74
aI19
aa(lp5085
I75
aI19
aa(lp5086
I76
aI19
aa(lp5087
I77
aI19
aa(lp5088
I78
aI19
aa(lp5089
I79
aI19
aa(lp5090
I80
aI19
aa(lp5091
I81
aI19
aa(lp5092
I82
aI19
aa(lp5093
I83
aI19
aa(lp5094
I84
aI19
aa(lp5095
I140
aI18
aa(lp5096
I141
aI18
aa(lp5097
I142
aI17
aa(lp5098
I143
aI17
aa(lp5099
I144
aI16
aa(lp5100
I145
aI16
aa(lp5101
I146
aI15
aa(lp5102
I147
aI15
aa(lp5103
I148
aI14
aa(lp5104
I149
aI14
aa(lp5105
I150
aI13
aa(lp5106
I151
aI13
aa(lp5107
I152
aI12
aa(lp5108
I153
aI12
aa(lp5109
I154
aI11
aa(lp5110
I165
aI11
aa(lp5111
I166
aI11
aa(lp5112
I167
aI11
aa(lp5113
I168
aI11
aa(lp5114
I169
aI12
aa(lp5115
I170
aI12
aa(lp5116
I171
aI12
aa(lp5117
I172
aI23
aa(lp5118
I173
aI23
aa(lp5119
I174
aI23
aa(lp5120
I175
aI24
aa(lp5121
I176
aI24
aa(lp5122
I177
aI24
aa(lp5123
I178
aI24
aa(lp5124
I179
aI25
aa(lp5125
I235
aI13
aa(lp5126
I236
aI13
aa(lp5127
I237
aI13
aa(lp5128
I238
aI13
aa(lp5129
I239
aI13
aa(lp5130
I240
aI13
aa(lp5131
I241
aI13
aa(lp5132
I242
aI2
aa(lp5133
I243
aI2
aa(lp5134
I244
aI2
aa(lp5135
I245
aI2
aa(lp5136
I246
aI2
aa(lp5137
I247
aI2
aa(lp5138
I248
aI2
aa(lp5139
I249
aI1
aa(lp5140
I305
aI1
aa(lp5141
I306
aI1
aa(lp5142
I307
aI1
aa(lp5143
I308
aI1
aa(lp5144
I309
aI12
aa(lp5145
I310
aI12
aa(lp5146
I311
aI12
aa(lp5147
I312
aI13
aa(lp5148
I313
aI13
aa(lp5149
I314
aI13
aa(lp5150
I315
aI24
aa(lp5151
I316
aI24
aa(lp5152
I317
aI24
aa(lp5153
I318
aI24
aa(lp5154
I319
aI35
aa(lp5155
I375
aI24
aa(lp5156
I376
aI24
aa(lp5157
I377
aI25
aa(lp5158
I378
aI25
aa(lp5159
I379
aI26
aa(lp5160
I380
aI26
aa(lp5161
I381
aI27
aa(lp5162
I382
aI16
aa(lp5163
I383
aI17
aa(lp5164
I384
aI17
aa(lp5165
I385
aI18
aa(lp5166
I386
aI18
aa(lp5167
I387
aI19
aa(lp5168
I388
aI19
aa(lp5169
I389
aI20
aa(lp5170
I445
aI19
aa(lp5171
I446
aI19
aa(lp5172
I447
aI18
aa(lp5173
I448
aI18
aa(lp5174
I449
aI18
aa(lp5175
I450
aI18
aa(lp5176
I451
aI17
aa(lp5177
I452
aI17
aa(lp5178
I453
aI17
aa(lp5179
I454
aI16
aa(lp5180
I455
aI16
aa(lp5181
I456
aI16
aa(lp5182
I457
aI15
aa(lp5183
I458
aI15
aa(lp5184
I459
aI15
aa(lp5185
I470
aI14
aa(lp5186
I471
aI14
aa(lp5187
I472
aI14
aa(lp5188
I473
aI14
aa(lp5189
I474
aI14
aa(lp5190
I475
aI14
aa(lp5191
I476
aI14
aa(lp5192
I477
aI25
aa(lp5193
I478
aI25
aa(lp5194
I479
aI25
aa(lp5195
I480
aI25
aa(lp5196
I481
aI25
aa(lp5197
I482
aI25
aa(lp5198
I483
aI25
aa(lp5199
I484
aI24
aa(lp5200
I540
aI13
aa(lp5201
I541
aI13
aa(lp5202
I542
aI13
aa(lp5203
I543
aI13
aa(lp5204
I544
aI14
aa(lp5205
I545
aI14
aa(lp5206
I546
aI14
aa(lp5207
I547
aI14
aa(lp5208
I548
aI14
aa(lp5209
I549
aI15
aa(lp5210
I550
aI15
aa(lp5211
I551
aI15
aa(lp5212
I552
aI15
aa(lp5213
I553
aI15
aa(lp5214
I554
aI16
aatp5215
Rp5216
sI35
g71
((lp5217
(lp5218
I0
aI24
aa(lp5219
I1
aI24
aa(lp5220
I2
aI25
aa(lp5221
I3
aI25
aa(lp5222
I4
aI25
aa(lp5223
I5
aI26
aa(lp5224
I6
aI26
aa(lp5225
I7
aI15
aa(lp5226
I8
aI16
aa(lp5227
I9
aI16
aa(lp5228
I10
aI16
aa(lp5229
I11
aI16
aa(lp5230
I12
aI17
aa(lp5231
I13
aI17
aa(lp5232
I14
aI17
aa(lp5233
I70
aI17
aa(lp5234
I71
aI17
aa(lp5235
I72
aI17
aa(lp5236
I73
aI17
aa(lp5237
I74
aI17
aa(lp5238
I75
aI17
aa(lp5239
I76
aI17
aa(lp5240
I77
aI17
aa(lp5241
I78
aI17
aa(lp5242
I79
aI17
aa(lp5243
I80
aI17
aa(lp5244
I81
aI17
aa(lp5245
I82
aI17
aa(lp5246
I83
aI17
aa(lp5247
I84
aI17
aa(lp5248
I140
aI16
aa(lp5249
I141
aI16
aa(lp5250
I142
aI16
aa(lp5251
I143
aI15
aa(lp5252
I144
aI15
aa(lp5253
I145
aI15
aa(lp5254
I146
aI14
aa(lp5255
I147
aI14
aa(lp5256
I148
aI14
aa(lp5257
I149
aI13
aa(lp5258
I150
aI13
aa(lp5259
I151
aI13
aa(lp5260
I152
aI12
aa(lp5261
I153
aI12
aa(lp5262
I154
aI12
aa(lp5263
I165
aI12
aa(lp5264
I166
aI12
aa(lp5265
I167
aI12
aa(lp5266
I168
aI23
aa(lp5267
I169
aI23
aa(lp5268
I170
aI23
aa(lp5269
I171
aI23
aa(lp5270
I172
aI34
aa(lp5271
I173
aI34
aa(lp5272
I174
aI34
aa(lp5273
I175
aI34
aa(lp5274
I176
aI45
aa(lp5275
I177
aI45
aa(lp5276
I178
aI45
aa(lp5277
I179
aI45
aa(lp5278
I235
aI34
aa(lp5279
I236
aI34
aa(lp5280
I237
aI34
aa(lp5281
I238
aI34
aa(lp5282
I239
aI23
aa(lp5283
I240
aI23
aa(lp5284
I241
aI23
aa(lp5285
I242
aI23
aa(lp5286
I243
aI23
aa(lp5287
I244
aI12
aa(lp5288
I245
aI12
aa(lp5289
I246
aI12
aa(lp5290
I247
aI12
aa(lp5291
I248
aI12
aa(lp5292
I249
aI1
aa(lp5293
I305
aI1
aa(lp5294
I306
aI1
aa(lp5295
I307
aI12
aa(lp5296
I308
aI12
aa(lp5297
I309
aI12
aa(lp5298
I310
aI12
aa(lp5299
I311
aI23
aa(lp5300
I312
aI23
aa(lp5301
I313
aI34
aa(lp5302
I314
aI34
aa(lp5303
I315
aI34
aa(lp5304
I316
aI45
aa(lp5305
I317
aI45
aa(lp5306
I318
aI45
aa(lp5307
I319
aI45
aa(lp5308
I375
aI34
aa(lp5309
I376
aI35
aa(lp5310
I377
aI35
aa(lp5311
I378
aI36
aa(lp5312
I379
aI25
aa(lp5313
I380
aI26
aa(lp5314
I381
aI26
aa(lp5315
I382
aI27
aa(lp5316
I383
aI27
aa(lp5317
I384
aI17
aa(lp5318
I385
aI17
aa(lp5319
I386
aI18
aa(lp5320
I387
aI18
aa(lp5321
I388
aI19
aa(lp5322
I389
aI8
aa(lp5323
I445
aI7
aa(lp5324
I446
aI7
aa(lp5325
I447
aI7
aa(lp5326
I448
aI6
aa(lp5327
I449
aI6
aa(lp5328
I450
aI6
aa(lp5329
I451
aI6
aa(lp5330
I452
aI5
aa(lp5331
I453
aI5
aa(lp5332
I454
aI5
aa(lp5333
I455
aI5
aa(lp5334
I456
aI4
aa(lp5335
I457
aI4
aa(lp5336
I458
aI4
aa(lp5337
I459
aI4
aa(lp5338
I470
aI3
aa(lp5339
I471
aI3
aa(lp5340
I472
aI14
aa(lp5341
I473
aI14
aa(lp5342
I474
aI13
aa(lp5343
I475
aI13
aa(lp5344
I476
aI24
aa(lp5345
I477
aI24
aa(lp5346
I478
aI35
aa(lp5347
I479
aI34
aa(lp5348
I480
aI34
aa(lp5349
I481
aI45
aa(lp5350
I482
aI45
aa(lp5351
I483
aI45
aa(lp5352
I484
aI44
aa(lp5353
I540
aI44
aa(lp5354
I541
aI45
aa(lp5355
I542
aI46
aa(lp5356
I543
aI46
aa(lp5357
I544
aI47
aa(lp5358
I545
aI47
aa(lp5359
I546
aI48
aa(lp5360
I547
aI49
aa(lp5361
I548
aI50
aa(lp5362
I549
aI50
aa(lp5363
I550
aI51
aa(lp5364
I551
aI52
aa(lp5365
I552
aI52
aa(lp5366
I553
aI53
aa(lp5367
I554
aI53
aatp5368
Rp5369
sI36
g71
((lp5370
(lp5371
I0
aI25
aa(lp5372
I1
aI25
aa(lp5373
I2
aI26
aa(lp5374
I3
aI26
aa(lp5375
I4
aI27
aa(lp5376
I5
aI27
aa(lp5377
I6
aI27
aa(lp5378
I7
aI17
aa(lp5379
I8
aI17
aa(lp5380
I9
aI18
aa(lp5381
I10
aI18
aa(lp5382
I11
aI18
aa(lp5383
I12
aI19
aa(lp5384
I13
aI19
aa(lp5385
I14
aI20
aa(lp5386
I84
aI20
aa(lp5387
I140
aI19
aa(lp5388
I141
aI19
aa(lp5389
I142
aI18
aa(lp5390
I143
aI29
aa(lp5391
I144
aI28
aa(lp5392
I145
aI28
aa(lp5393
I146
aI28
aa(lp5394
I147
aI38
aa(lp5395
I148
aI38
aa(lp5396
I149
aI37
aa(lp5397
I150
aI37
aa(lp5398
I151
aI48
aa(lp5399
I152
aI47
aa(lp5400
I153
aI47
aa(lp5401
I154
aI46
aa(lp5402
I179
aI46
aa(lp5403
I235
aI35
aa(lp5404
I236
aI35
aa(lp5405
I237
aI35
aa(lp5406
I238
aI35
aa(lp5407
I239
aI24
aa(lp5408
I240
aI24
aa(lp5409
I241
aI24
aa(lp5410
I242
aI24
aa(lp5411
I243
aI24
aa(lp5412
I244
aI13
aa(lp5413
I245
aI13
aa(lp5414
I246
aI13
aa(lp5415
I247
aI13
aa(lp5416
I248
aI13
aa(lp5417
I249
aI2
aa(lp5418
I305
aI2
aa(lp5419
I306
aI2
aa(lp5420
I307
aI2
aa(lp5421
I308
aI13
aa(lp5422
I309
aI13
aa(lp5423
I310
aI13
aa(lp5424
I311
aI13
aa(lp5425
I312
aI24
aa(lp5426
I313
aI24
aa(lp5427
I314
aI24
aa(lp5428
I315
aI24
aa(lp5429
I316
aI35
aa(lp5430
I317
aI35
aa(lp5431
I318
aI35
aa(lp5432
I319
aI35
aa(lp5433
I375
aI24
aa(lp5434
I376
aI24
aa(lp5435
I377
aI25
aa(lp5436
I378
aI25
aa(lp5437
I379
aI26
aa(lp5438
I380
aI26
aa(lp5439
I381
aI27
aa(lp5440
I382
aI16
aa(lp5441
I383
aI17
aa(lp5442
I384
aI17
aa(lp5443
I385
aI18
aa(lp5444
I386
aI18
aa(lp5445
I387
aI19
aa(lp5446
I388
aI19
aa(lp5447
I389
aI20
aa(lp5448
I445
aI19
aa(lp5449
I446
aI19
aa(lp5450
I447
aI18
aa(lp5451
I448
aI18
aa(lp5452
I449
aI18
aa(lp5453
I450
aI18
aa(lp5454
I451
aI17
aa(lp5455
I452
aI17
aa(lp5456
I453
aI17
aa(lp5457
I454
aI16
aa(lp5458
I455
aI16
aa(lp5459
I456
aI16
aa(lp5460
I457
aI15
aa(lp5461
I458
aI15
aa(lp5462
I459
aI15
aa(lp5463
I470
aI14
aa(lp5464
I471
aI14
aa(lp5465
I472
aI14
aa(lp5466
I473
aI14
aa(lp5467
I474
aI14
aa(lp5468
I475
aI25
aa(lp5469
I476
aI25
aa(lp5470
I477
aI24
aa(lp5471
I478
aI24
aa(lp5472
I479
aI35
aa(lp5473
I480
aI35
aa(lp5474
I481
aI35
aa(lp5475
I482
aI35
aa(lp5476
I483
aI35
aa(lp5477
I484
aI46
aa(lp5478
I540
aI35
aa(lp5479
I541
aI35
aa(lp5480
I542
aI35
aa(lp5481
I543
aI35
aa(lp5482
I544
aI25
aa(lp5483
I545
aI25
aa(lp5484
I546
aI25
aa(lp5485
I547
aI25
aa(lp5486
I548
aI25
aa(lp5487
I549
aI15
aa(lp5488
I550
aI15
aa(lp5489
I551
aI15
aa(lp5490
I552
aI15
aa(lp5491
I553
aI15
aa(lp5492
I554
aI5
aatp5493
Rp5494
sI37
g71
((lp5495
(lp5496
I0
aI26
aa(lp5497
I1
aI26
aa(lp5498
I2
aI27
aa(lp5499
I3
aI27
aa(lp5500
I4
aI28
aa(lp5501
I5
aI28
aa(lp5502
I6
aI28
aa(lp5503
I7
aI18
aa(lp5504
I8
aI18
aa(lp5505
I9
aI19
aa(lp5506
I10
aI19
aa(lp5507
I11
aI19
aa(lp5508
I12
aI20
aa(lp5509
I13
aI20
aa(lp5510
I14
aI21
aa(lp5511
I84
aI21
aa(lp5512
I140
aI20
aa(lp5513
I141
aI20
aa(lp5514
I142
aI19
aa(lp5515
I143
aI30
aa(lp5516
I144
aI29
aa(lp5517
I145
aI29
aa(lp5518
I146
aI28
aa(lp5519
I147
aI39
aa(lp5520
I148
aI38
aa(lp5521
I149
aI38
aa(lp5522
I150
aI37
aa(lp5523
I151
aI48
aa(lp5524
I152
aI47
aa(lp5525
I153
aI47
aa(lp5526
I154
aI46
aa(lp5527
I165
aI46
aa(lp5528
I166
aI46
aa(lp5529
I167
aI47
aa(lp5530
I168
aI47
aa(lp5531
I169
aI47
aa(lp5532
I170
aI48
aa(lp5533
I171
aI48
aa(lp5534
I172
aI48
aa(lp5535
I173
aI49
aa(lp5536
I174
aI49
aa(lp5537
I175
aI49
aa(lp5538
I176
aI49
aa(lp5539
I177
aI50
aa(lp5540
I178
aI50
aa(lp5541
I179
aI50
aa(lp5542
I235
aI38
aa(lp5543
I236
aI38
aa(lp5544
I237
aI38
aa(lp5545
I238
aI37
aa(lp5546
I239
aI26
aa(lp5547
I240
aI26
aa(lp5548
I241
aI26
aa(lp5549
I242
aI25
aa(lp5550
I243
aI25
aa(lp5551
I244
aI14
aa(lp5552
I245
aI14
aa(lp5553
I246
aI13
aa(lp5554
I247
aI13
aa(lp5555
I248
aI13
aa(lp5556
I249
aI2
aa(lp5557
I305
aI2
aa(lp5558
I306
aI2
aa(lp5559
I307
aI3
aa(lp5560
I308
aI14
aa(lp5561
I309
aI14
aa(lp5562
I310
aI15
aa(lp5563
I311
aI15
aa(lp5564
I312
aI26
aa(lp5565
I313
aI27
aa(lp5566
I314
aI27
aa(lp5567
I315
aI27
aa(lp5568
I316
aI38
aa(lp5569
I317
aI39
aa(lp5570
I318
aI39
aa(lp5571
I319
aI39
aa(lp5572
I375
aI39
aa(lp5573
I376
aI39
aa(lp5574
I377
aI39
aa(lp5575
I378
aI39
aa(lp5576
I379
aI40
aa(lp5577
I380
aI40
aa(lp5578
I381
aI40
aa(lp5579
I382
aI40
aa(lp5580
I383
aI40
aa(lp5581
I384
aI41
aa(lp5582
I385
aI41
aa(lp5583
I386
aI41
aa(lp5584
I387
aI41
aa(lp5585
I388
aI41
aa(lp5586
I389
aI52
aa(lp5587
I445
aI40
aa(lp5588
I446
aI40
aa(lp5589
I447
aI40
aa(lp5590
I448
aI39
aa(lp5591
I449
aI28
aa(lp5592
I450
aI28
aa(lp5593
I451
aI28
aa(lp5594
I452
aI27
aa(lp5595
I453
aI27
aa(lp5596
I454
aI16
aa(lp5597
I455
aI16
aa(lp5598
I456
aI15
aa(lp5599
I457
aI15
aa(lp5600
I458
aI15
aa(lp5601
I459
aI4
aa(lp5602
I470
aI4
aa(lp5603
I471
aI4
aa(lp5604
I472
aI4
aa(lp5605
I473
aI15
aa(lp5606
I474
aI16
aa(lp5607
I475
aI16
aa(lp5608
I476
aI16
aa(lp5609
I477
aI27
aa(lp5610
I478
aI27
aa(lp5611
I479
aI28
aa(lp5612
I480
aI28
aa(lp5613
I481
aI39
aa(lp5614
I482
aI39
aa(lp5615
I483
aI39
aa(lp5616
I484
aI40
aa(lp5617
I540
aI39
aa(lp5618
I541
aI39
aa(lp5619
I542
aI39
aa(lp5620
I543
aI38
aa(lp5621
I544
aI38
aa(lp5622
I545
aI38
aa(lp5623
I546
aI37
aa(lp5624
I547
aI37
aa(lp5625
I548
aI37
aa(lp5626
I549
aI36
aa(lp5627
I550
aI36
aa(lp5628
I551
aI36
aa(lp5629
I552
aI35
aa(lp5630
I553
aI35
aa(lp5631
I554
aI35
aatp5632
Rp5633
sI38
g71
((lp5634
(lp5635
I0
aI27
aa(lp5636
I1
aI27
aa(lp5637
I2
aI27
aa(lp5638
I3
aI28
aa(lp5639
I4
aI28
aa(lp5640
I5
aI28
aa(lp5641
I6
aI28
aa(lp5642
I7
aI18
aa(lp5643
I8
aI18
aa(lp5644
I9
aI18
aa(lp5645
I10
aI18
aa(lp5646
I11
aI19
aa(lp5647
I12
aI19
aa(lp5648
I13
aI19
aa(lp5649
I14
aI20
aa(lp5650
I84
aI20
aa(lp5651
I140
aI19
aa(lp5652
I141
aI19
aa(lp5653
I142
aI18
aa(lp5654
I143
aI29
aa(lp5655
I144
aI28
aa(lp5656
I145
aI28
aa(lp5657
I146
aI28
aa(lp5658
I147
aI38
aa(lp5659
I148
aI38
aa(lp5660
I149
aI37
aa(lp5661
I150
aI37
aa(lp5662
I151
aI48
aa(lp5663
I152
aI47
aa(lp5664
I153
aI47
aa(lp5665
I154
aI46
aa(lp5666
I179
aI46
aa(lp5667
I235
aI35
aa(lp5668
I236
aI35
aa(lp5669
I237
aI36
aa(lp5670
I238
aI36
aa(lp5671
I239
aI25
aa(lp5672
I240
aI26
aa(lp5673
I241
aI26
aa(lp5674
I242
aI27
aa(lp5675
I243
aI27
aa(lp5676
I244
aI17
aa(lp5677
I245
aI17
aa(lp5678
I246
aI17
aa(lp5679
I247
aI18
aa(lp5680
I248
aI18
aa(lp5681
I249
aI8
aa(lp5682
I305
aI7
aa(lp5683
I306
aI7
aa(lp5684
I307
aI6
aa(lp5685
I308
aI17
aa(lp5686
I309
aI16
aa(lp5687
I310
aI16
aa(lp5688
I311
aI16
aa(lp5689
I312
aI26
aa(lp5690
I313
aI26
aa(lp5691
I314
aI25
aa(lp5692
I315
aI25
aa(lp5693
I316
aI36
aa(lp5694
I317
aI35
aa(lp5695
I318
aI35
aa(lp5696
I319
aI34
aa(lp5697
I375
aI34
aa(lp5698
I376
aI34
aa(lp5699
I377
aI34
aa(lp5700
I378
aI35
aa(lp5701
I379
aI35
aa(lp5702
I380
aI36
aa(lp5703
I381
aI36
aa(lp5704
I382
aI36
aa(lp5705
I383
aI37
aa(lp5706
I384
aI37
aa(lp5707
I385
aI37
aa(lp5708
I386
aI37
aa(lp5709
I387
aI38
aa(lp5710
I388
aI38
aa(lp5711
I389
aI49
aa(lp5712
I445
aI37
aa(lp5713
I446
aI37
aa(lp5714
I447
aI37
aa(lp5715
I448
aI37
aa(lp5716
I449
aI26
aa(lp5717
I450
aI26
aa(lp5718
I451
aI26
aa(lp5719
I452
aI26
aa(lp5720
I453
aI26
aa(lp5721
I454
aI15
aa(lp5722
I455
aI15
aa(lp5723
I456
aI15
aa(lp5724
I457
aI15
aa(lp5725
I458
aI15
aa(lp5726
I459
aI4
aa(lp5727
I470
aI3
aa(lp5728
I471
aI3
aa(lp5729
I472
aI3
aa(lp5730
I473
aI14
aa(lp5731
I474
aI14
aa(lp5732
I475
aI14
aa(lp5733
I476
aI14
aa(lp5734
I477
aI24
aa(lp5735
I478
aI24
aa(lp5736
I479
aI24
aa(lp5737
I480
aI24
aa(lp5738
I481
aI35
aa(lp5739
I482
aI35
aa(lp5740
I483
aI35
aa(lp5741
I484
aI35
aa(lp5742
I554
aI35
aatp5743
Rp5744
sI39
g71
((lp5745
(lp5746
I0
aI28
aa(lp5747
I1
aI28
aa(lp5748
I2
aI28
aa(lp5749
I3
aI28
aa(lp5750
I4
aI29
aa(lp5751
I5
aI29
aa(lp5752
I6
aI29
aa(lp5753
I7
aI18
aa(lp5754
I8
aI18
aa(lp5755
I9
aI19
aa(lp5756
I10
aI19
aa(lp5757
I11
aI19
aa(lp5758
I12
aI19
aa(lp5759
I13
aI19
aa(lp5760
I14
aI19
aa(lp5761
I70
aI19
aa(lp5762
I71
aI19
aa(lp5763
I72
aI19
aa(lp5764
I73
aI19
aa(lp5765
I74
aI19
aa(lp5766
I75
aI19
aa(lp5767
I76
aI19
aa(lp5768
I77
aI19
aa(lp5769
I78
aI19
aa(lp5770
I79
aI19
aa(lp5771
I80
aI19
aa(lp5772
I81
aI19
aa(lp5773
I82
aI19
aa(lp5774
I83
aI19
aa(lp5775
I84
aI19
aa(lp5776
I140
aI18
aa(lp5777
I141
aI18
aa(lp5778
I142
aI18
aa(lp5779
I143
aI17
aa(lp5780
I144
aI17
aa(lp5781
I145
aI17
aa(lp5782
I146
aI17
aa(lp5783
I147
aI16
aa(lp5784
I148
aI16
aa(lp5785
I149
aI16
aa(lp5786
I150
aI16
aa(lp5787
I151
aI15
aa(lp5788
I152
aI15
aa(lp5789
I153
aI15
aa(lp5790
I154
aI15
aa(lp5791
I165
aI14
aa(lp5792
I166
aI14
aa(lp5793
I167
aI14
aa(lp5794
I168
aI14
aa(lp5795
I169
aI14
aa(lp5796
I170
aI14
aa(lp5797
I171
aI14
aa(lp5798
I172
aI25
aa(lp5799
I173
aI25
aa(lp5800
I174
aI25
aa(lp5801
I175
aI25
aa(lp5802
I176
aI25
aa(lp5803
I177
aI25
aa(lp5804
I178
aI25
aa(lp5805
I179
aI24
aa(lp5806
I235
aI13
aa(lp5807
I236
aI13
aa(lp5808
I237
aI14
aa(lp5809
I238
aI14
aa(lp5810
I239
aI14
aa(lp5811
I240
aI15
aa(lp5812
I241
aI15
aa(lp5813
I242
aI16
aa(lp5814
I243
aI16
aa(lp5815
I244
aI17
aa(lp5816
I245
aI17
aa(lp5817
I246
aI17
aa(lp5818
I247
aI18
aa(lp5819
I248
aI18
aa(lp5820
I249
aI19
aa(lp5821
I305
aI18
aa(lp5822
I306
aI18
aa(lp5823
I307
aI18
aa(lp5824
I308
aI17
aa(lp5825
I309
aI17
aa(lp5826
I310
aI17
aa(lp5827
I311
aI16
aa(lp5828
I312
aI27
aa(lp5829
I313
aI27
aa(lp5830
I314
aI26
aa(lp5831
I315
aI26
aa(lp5832
I316
aI26
aa(lp5833
I317
aI25
aa(lp5834
I318
aI25
aa(lp5835
I319
aI25
aa(lp5836
I375
aI25
aa(lp5837
I376
aI25
aa(lp5838
I377
aI26
aa(lp5839
I378
aI26
aa(lp5840
I379
aI27
aa(lp5841
I380
aI27
aa(lp5842
I381
aI27
aa(lp5843
I382
aI39
aa(lp5844
I383
aI39
aa(lp5845
I384
aI40
aa(lp5846
I385
aI40
aa(lp5847
I386
aI40
aa(lp5848
I387
aI41
aa(lp5849
I388
aI41
aa(lp5850
I389
aI42
aa(lp5851
I445
aI30
aa(lp5852
I446
aI30
aa(lp5853
I447
aI29
aa(lp5854
I448
aI29
aa(lp5855
I449
aI29
aa(lp5856
I450
aI29
aa(lp5857
I451
aI28
aa(lp5858
I452
aI17
aa(lp5859
I453
aI17
aa(lp5860
I454
aI16
aa(lp5861
I455
aI16
aa(lp5862
I456
aI16
aa(lp5863
I457
aI15
aa(lp5864
I458
aI15
aa(lp5865
I459
aI15
aa(lp5866
I470
aI14
aa(lp5867
I471
aI14
aa(lp5868
I472
aI14
aa(lp5869
I473
aI14
aa(lp5870
I474
aI14
aa(lp5871
I475
aI14
aa(lp5872
I476
aI14
aa(lp5873
I477
aI25
aa(lp5874
I478
aI25
aa(lp5875
I479
aI25
aa(lp5876
I480
aI25
aa(lp5877
I481
aI25
aa(lp5878
I482
aI25
aa(lp5879
I483
aI25
aa(lp5880
I484
aI24
aa(lp5881
I540
aI24
aa(lp5882
I541
aI24
aa(lp5883
I542
aI24
aa(lp5884
I543
aI24
aa(lp5885
I544
aI24
aa(lp5886
I545
aI24
aa(lp5887
I546
aI24
aa(lp5888
I547
aI24
aa(lp5889
I548
aI24
aa(lp5890
I549
aI24
aa(lp5891
I550
aI24
aa(lp5892
I551
aI24
aa(lp5893
I552
aI24
aa(lp5894
I553
aI24
aa(lp5895
I554
aI35
aatp5896
Rp5897
sI40
g71
((lp5898
(lp5899
I0
aI29
aa(lp5900
I1
aI29
aa(lp5901
I2
aI29
aa(lp5902
I3
aI29
aa(lp5903
I4
aI30
aa(lp5904
I5
aI30
aa(lp5905
I6
aI30
aa(lp5906
I7
aI19
aa(lp5907
I8
aI19
aa(lp5908
I9
aI19
aa(lp5909
I10
aI20
aa(lp5910
I11
aI20
aa(lp5911
I12
aI20
aa(lp5912
I13
aI20
aa(lp5913
I14
aI20
aa(lp5914
I70
aI20
aa(lp5915
I71
aI20
aa(lp5916
I72
aI20
aa(lp5917
I73
aI20
aa(lp5918
I74
aI20
aa(lp5919
I75
aI20
aa(lp5920
I76
aI20
aa(lp5921
I77
aI20
aa(lp5922
I78
aI20
aa(lp5923
I79
aI20
aa(lp5924
I80
aI20
aa(lp5925
I81
aI20
aa(lp5926
I82
aI20
aa(lp5927
I83
aI20
aa(lp5928
I84
aI20
aa(lp5929
I140
aI19
aa(lp5930
I141
aI18
aa(lp5931
I142
aI18
aa(lp5932
I143
aI17
aa(lp5933
I144
aI17
aa(lp5934
I145
aI16
aa(lp5935
I146
aI16
aa(lp5936
I147
aI15
aa(lp5937
I148
aI15
aa(lp5938
I149
aI14
aa(lp5939
I150
aI14
aa(lp5940
I151
aI13
aa(lp5941
I152
aI13
aa(lp5942
I153
aI12
aa(lp5943
I154
aI12
aa(lp5944
I165
aI12
aa(lp5945
I166
aI12
aa(lp5946
I167
aI13
aa(lp5947
I168
aI13
aa(lp5948
I169
aI13
aa(lp5949
I170
aI25
aa(lp5950
I171
aI25
aa(lp5951
I172
aI26
aa(lp5952
I173
aI26
aa(lp5953
I174
aI38
aa(lp5954
I175
aI38
aa(lp5955
I176
aI38
aa(lp5956
I177
aI39
aa(lp5957
I178
aI39
aa(lp5958
I179
aI51
aa(lp5959
I235
aI40
aa(lp5960
I236
aI40
aa(lp5961
I237
aI40
aa(lp5962
I238
aI40
aa(lp5963
I239
aI29
aa(lp5964
I240
aI29
aa(lp5965
I241
aI29
aa(lp5966
I242
aI29
aa(lp5967
I243
aI29
aa(lp5968
I244
aI18
aa(lp5969
I245
aI18
aa(lp5970
I246
aI18
aa(lp5971
I247
aI18
aa(lp5972
I248
aI18
aa(lp5973
I249
aI7
aa(lp5974
I305
aI7
aa(lp5975
I306
aI7
aa(lp5976
I307
aI7
aa(lp5977
I308
aI18
aa(lp5978
I309
aI18
aa(lp5979
I310
aI18
aa(lp5980
I311
aI18
aa(lp5981
I312
aI29
aa(lp5982
I313
aI29
aa(lp5983
I314
aI29
aa(lp5984
I315
aI29
aa(lp5985
I316
aI40
aa(lp5986
I317
aI40
aa(lp5987
I318
aI40
aa(lp5988
I319
aI40
aa(lp5989
I375
aI29
aa(lp5990
I376
aI29
aa(lp5991
I377
aI29
aa(lp5992
I378
aI29
aa(lp5993
I379
aI29
aa(lp5994
I380
aI29
aa(lp5995
I381
aI29
aa(lp5996
I382
aI19
aa(lp5997
I383
aI19
aa(lp5998
I384
aI19
aa(lp5999
I385
aI19
aa(lp6000
I386
aI19
aa(lp6001
I387
aI19
aa(lp6002
I388
aI19
aa(lp6003
I389
aI20
aa(lp6004
I445
aI19
aa(lp6005
I446
aI19
aa(lp6006
I447
aI18
aa(lp6007
I448
aI18
aa(lp6008
I449
aI18
aa(lp6009
I450
aI18
aa(lp6010
I451
aI17
aa(lp6011
I452
aI17
aa(lp6012
I453
aI17
aa(lp6013
I454
aI16
aa(lp6014
I455
aI16
aa(lp6015
I456
aI16
aa(lp6016
I457
aI15
aa(lp6017
I458
aI15
aa(lp6018
I459
aI15
aa(lp6019
I470
aI15
aa(lp6020
I471
aI15
aa(lp6021
I472
aI15
aa(lp6022
I473
aI15
aa(lp6023
I474
aI16
aa(lp6024
I475
aI27
aa(lp6025
I476
aI27
aa(lp6026
I477
aI27
aa(lp6027
I478
aI27
aa(lp6028
I479
aI39
aa(lp6029
I480
aI39
aa(lp6030
I481
aI39
aa(lp6031
I482
aI39
aa(lp6032
I483
aI39
aa(lp6033
I484
aI51
aa(lp6034
I540
aI39
aa(lp6035
I541
aI39
aa(lp6036
I542
aI39
aa(lp6037
I543
aI39
aa(lp6038
I544
aI28
aa(lp6039
I545
aI28
aa(lp6040
I546
aI28
aa(lp6041
I547
aI27
aa(lp6042
I548
aI27
aa(lp6043
I549
aI16
aa(lp6044
I550
aI16
aa(lp6045
I551
aI16
aa(lp6046
I552
aI16
aa(lp6047
I553
aI16
aa(lp6048
I554
aI4
aatp6049
Rp6050
sI41
g71
((lp6051
(lp6052
I0
aI30
aa(lp6053
I1
aI30
aa(lp6054
I2
aI30
aa(lp6055
I3
aI30
aa(lp6056
I4
aI30
aa(lp6057
I5
aI30
aa(lp6058
I6
aI30
aa(lp6059
I7
aI19
aa(lp6060
I8
aI19
aa(lp6061
I9
aI19
aa(lp6062
I10
aI19
aa(lp6063
I11
aI19
aa(lp6064
I12
aI19
aa(lp6065
I13
aI19
aa(lp6066
I14
aI19
aa(lp6067
I70
aI19
aa(lp6068
I71
aI19
aa(lp6069
I72
aI19
aa(lp6070
I73
aI19
aa(lp6071
I74
aI19
aa(lp6072
I75
aI19
aa(lp6073
I76
aI19
aa(lp6074
I77
aI19
aa(lp6075
I78
aI19
aa(lp6076
I79
aI19
aa(lp6077
I80
aI19
aa(lp6078
I81
aI19
aa(lp6079
I82
aI19
aa(lp6080
I83
aI19
aa(lp6081
I84
aI19
aa(lp6082
I140
aI18
aa(lp6083
I141
aI18
aa(lp6084
I142
aI18
aa(lp6085
I143
aI28
aa(lp6086
I144
aI28
aa(lp6087
I145
aI28
aa(lp6088
I146
aI27
aa(lp6089
I147
aI38
aa(lp6090
I148
aI38
aa(lp6091
I149
aI37
aa(lp6092
I150
aI37
aa(lp6093
I151
aI48
aa(lp6094
I152
aI47
aa(lp6095
I153
aI47
aa(lp6096
I154
aI47
aa(lp6097
I165
aI36
aa(lp6098
I166
aI36
aa(lp6099
I167
aI36
aa(lp6100
I168
aI36
aa(lp6101
I169
aI36
aa(lp6102
I170
aI36
aa(lp6103
I171
aI36
aa(lp6104
I172
aI37
aa(lp6105
I173
aI37
aa(lp6106
I174
aI37
aa(lp6107
I175
aI37
aa(lp6108
I176
aI37
aa(lp6109
I177
aI37
aa(lp6110
I178
aI37
aa(lp6111
I179
aI27
aa(lp6112
I235
aI15
aa(lp6113
I236
aI15
aa(lp6114
I237
aI15
aa(lp6115
I238
aI15
aa(lp6116
I239
aI14
aa(lp6117
I240
aI14
aa(lp6118
I241
aI14
aa(lp6119
I242
aI3
aa(lp6120
I243
aI3
aa(lp6121
I244
aI2
aa(lp6122
I245
aI2
aa(lp6123
I246
aI2
aa(lp6124
I247
aI2
aa(lp6125
I248
aI2
aa(lp6126
I249
aI1
aa(lp6127
I305
aI1
aa(lp6128
I306
aI1
aa(lp6129
I307
aI1
aa(lp6130
I308
aI2
aa(lp6131
I309
aI13
aa(lp6132
I310
aI13
aa(lp6133
I311
aI13
aa(lp6134
I312
aI14
aa(lp6135
I313
aI14
aa(lp6136
I314
aI14
aa(lp6137
I315
aI25
aa(lp6138
I316
aI26
aa(lp6139
I317
aI26
aa(lp6140
I318
aI26
aa(lp6141
I319
aI37
aa(lp6142
I375
aI26
aa(lp6143
I376
aI26
aa(lp6144
I377
aI26
aa(lp6145
I378
aI27
aa(lp6146
I379
aI27
aa(lp6147
I380
aI27
aa(lp6148
I381
aI28
aa(lp6149
I382
aI17
aa(lp6150
I383
aI17
aa(lp6151
I384
aI18
aa(lp6152
I385
aI18
aa(lp6153
I386
aI18
aa(lp6154
I387
aI19
aa(lp6155
I388
aI19
aa(lp6156
I389
aI19
aa(lp6157
I445
aI18
aa(lp6158
I446
aI18
aa(lp6159
I447
aI18
aa(lp6160
I448
aI17
aa(lp6161
I449
aI17
aa(lp6162
I450
aI17
aa(lp6163
I451
aI17
aa(lp6164
I452
aI16
aa(lp6165
I453
aI16
aa(lp6166
I454
aI16
aa(lp6167
I455
aI16
aa(lp6168
I456
aI15
aa(lp6169
I457
aI15
aa(lp6170
I458
aI15
aa(lp6171
I459
aI15
aa(lp6172
I470
aI15
aa(lp6173
I471
aI15
aa(lp6174
I472
aI15
aa(lp6175
I473
aI15
aa(lp6176
I474
aI15
aa(lp6177
I475
aI15
aa(lp6178
I476
aI15
aa(lp6179
I477
aI26
aa(lp6180
I478
aI26
aa(lp6181
I479
aI26
aa(lp6182
I480
aI26
aa(lp6183
I481
aI26
aa(lp6184
I482
aI26
aa(lp6185
I483
aI26
aa(lp6186
I484
aI26
aa(lp6187
I540
aI26
aa(lp6188
I541
aI26
aa(lp6189
I542
aI27
aa(lp6190
I543
aI27
aa(lp6191
I544
aI28
aa(lp6192
I545
aI28
aa(lp6193
I546
aI28
aa(lp6194
I547
aI40
aa(lp6195
I548
aI40
aa(lp6196
I549
aI41
aa(lp6197
I550
aI41
aa(lp6198
I551
aI41
aa(lp6199
I552
aI42
aa(lp6200
I553
aI42
aa(lp6201
I554
aI43
aatp6202
Rp6203
sI42
g71
((lp6204
(lp6205
I0
aI31
aa(lp6206
I1
aI31
aa(lp6207
I2
aI31
aa(lp6208
I3
aI31
aa(lp6209
I4
aI31
aa(lp6210
I5
aI31
aa(lp6211
I6
aI31
aa(lp6212
I7
aI20
aa(lp6213
I8
aI20
aa(lp6214
I9
aI20
aa(lp6215
I10
aI20
aa(lp6216
I11
aI20
aa(lp6217
I12
aI20
aa(lp6218
I13
aI20
aa(lp6219
I14
aI20
aa(lp6220
I70
aI20
aa(lp6221
I71
aI20
aa(lp6222
I72
aI20
aa(lp6223
I73
aI20
aa(lp6224
I74
aI20
aa(lp6225
I75
aI20
aa(lp6226
I76
aI20
aa(lp6227
I77
aI20
aa(lp6228
I78
aI20
aa(lp6229
I79
aI20
aa(lp6230
I80
aI20
aa(lp6231
I81
aI20
aa(lp6232
I82
aI20
aa(lp6233
I83
aI20
aa(lp6234
I84
aI20
aa(lp6235
I140
aI19
aa(lp6236
I141
aI19
aa(lp6237
I142
aI18
aa(lp6238
I143
aI18
aa(lp6239
I144
aI18
aa(lp6240
I145
aI18
aa(lp6241
I146
aI17
aa(lp6242
I147
aI17
aa(lp6243
I148
aI17
aa(lp6244
I149
aI16
aa(lp6245
I150
aI16
aa(lp6246
I151
aI16
aa(lp6247
I152
aI15
aa(lp6248
I153
aI15
aa(lp6249
I154
aI15
aa(lp6250
I165
aI14
aa(lp6251
I166
aI14
aa(lp6252
I167
aI14
aa(lp6253
I168
aI14
aa(lp6254
I169
aI13
aa(lp6255
I170
aI24
aa(lp6256
I171
aI24
aa(lp6257
I172
aI24
aa(lp6258
I173
aI24
aa(lp6259
I174
aI34
aa(lp6260
I175
aI34
aa(lp6261
I176
aI34
aa(lp6262
I177
aI34
aa(lp6263
I178
aI34
aa(lp6264
I179
aI44
aa(lp6265
I235
aI33
aa(lp6266
I236
aI33
aa(lp6267
I237
aI33
aa(lp6268
I238
aI33
aa(lp6269
I239
aI22
aa(lp6270
I240
aI22
aa(lp6271
I241
aI22
aa(lp6272
I242
aI23
aa(lp6273
I243
aI23
aa(lp6274
I244
aI12
aa(lp6275
I245
aI12
aa(lp6276
I246
aI12
aa(lp6277
I247
aI12
aa(lp6278
I248
aI12
aa(lp6279
I249
aI1
aa(lp6280
I305
aI1
aa(lp6281
I306
aI1
aa(lp6282
I307
aI1
aa(lp6283
I308
aI12
aa(lp6284
I309
aI12
aa(lp6285
I310
aI12
aa(lp6286
I311
aI12
aa(lp6287
I312
aI23
aa(lp6288
I313
aI23
aa(lp6289
I314
aI23
aa(lp6290
I315
aI23
aa(lp6291
I316
aI34
aa(lp6292
I317
aI34
aa(lp6293
I318
aI34
aa(lp6294
I319
aI34
aa(lp6295
I375
aI34
aa(lp6296
I376
aI35
aa(lp6297
I377
aI35
aa(lp6298
I378
aI36
aa(lp6299
I379
aI36
aa(lp6300
I380
aI37
aa(lp6301
I381
aI37
aa(lp6302
I382
aI38
aa(lp6303
I383
aI38
aa(lp6304
I384
aI39
aa(lp6305
I385
aI39
aa(lp6306
I386
aI40
aa(lp6307
I387
aI40
aa(lp6308
I388
aI41
aa(lp6309
I389
aI52
aa(lp6310
I445
aI41
aa(lp6311
I446
aI41
aa(lp6312
I447
aI41
aa(lp6313
I448
aI41
aa(lp6314
I449
aI30
aa(lp6315
I450
aI30
aa(lp6316
I451
aI30
aa(lp6317
I452
aI30
aa(lp6318
I453
aI30
aa(lp6319
I454
aI19
aa(lp6320
I455
aI19
aa(lp6321
I456
aI19
aa(lp6322
I457
aI19
aa(lp6323
I458
aI19
aa(lp6324
I459
aI8
aa(lp6325
I470
aI7
aa(lp6326
I471
aI7
aa(lp6327
I472
aI6
aa(lp6328
I473
aI17
aa(lp6329
I474
aI16
aa(lp6330
I475
aI16
aa(lp6331
I476
aI15
aa(lp6332
I477
aI26
aa(lp6333
I478
aI25
aa(lp6334
I479
aI25
aa(lp6335
I480
aI24
aa(lp6336
I481
aI35
aa(lp6337
I482
aI34
aa(lp6338
I483
aI34
aa(lp6339
I484
aI33
aa(lp6340
I540
aI33
aa(lp6341
I541
aI33
aa(lp6342
I542
aI33
aa(lp6343
I543
aI33
aa(lp6344
I544
aI33
aa(lp6345
I545
aI33
aa(lp6346
I546
aI33
aa(lp6347
I547
aI34
aa(lp6348
I548
aI34
aa(lp6349
I549
aI34
aa(lp6350
I550
aI34
aa(lp6351
I551
aI34
aa(lp6352
I552
aI34
aa(lp6353
I553
aI34
aa(lp6354
I554
aI34
aatp6355
Rp6356
sI43
g71
((lp6357
(lp6358
I0
aI31
aa(lp6359
I1
aI31
aa(lp6360
I2
aI31
aa(lp6361
I3
aI31
aa(lp6362
I4
aI31
aa(lp6363
I5
aI31
aa(lp6364
I6
aI31
aa(lp6365
I7
aI20
aa(lp6366
I8
aI20
aa(lp6367
I9
aI20
aa(lp6368
I10
aI20
aa(lp6369
I11
aI20
aa(lp6370
I12
aI20
aa(lp6371
I13
aI20
aa(lp6372
I14
aI20
aa(lp6373
I84
aI20
aa(lp6374
I140
aI19
aa(lp6375
I141
aI19
aa(lp6376
I142
aI18
aa(lp6377
I143
aI18
aa(lp6378
I144
aI18
aa(lp6379
I145
aI18
aa(lp6380
I146
aI17
aa(lp6381
I147
aI17
aa(lp6382
I148
aI17
aa(lp6383
I149
aI16
aa(lp6384
I150
aI16
aa(lp6385
I151
aI16
aa(lp6386
I152
aI15
aa(lp6387
I153
aI15
aa(lp6388
I154
aI15
aa(lp6389
I165
aI14
aa(lp6390
I166
aI14
aa(lp6391
I167
aI14
aa(lp6392
I168
aI14
aa(lp6393
I169
aI14
aa(lp6394
I170
aI14
aa(lp6395
I171
aI14
aa(lp6396
I172
aI25
aa(lp6397
I173
aI25
aa(lp6398
I174
aI25
aa(lp6399
I175
aI25
aa(lp6400
I176
aI25
aa(lp6401
I177
aI25
aa(lp6402
I178
aI25
aa(lp6403
I179
aI24
aa(lp6404
I235
aI13
aa(lp6405
I236
aI13
aa(lp6406
I237
aI14
aa(lp6407
I238
aI14
aa(lp6408
I239
aI14
aa(lp6409
I240
aI15
aa(lp6410
I241
aI15
aa(lp6411
I242
aI16
aa(lp6412
I243
aI16
aa(lp6413
I244
aI17
aa(lp6414
I245
aI17
aa(lp6415
I246
aI17
aa(lp6416
I247
aI18
aa(lp6417
I248
aI18
aa(lp6418
I249
aI19
aa(lp6419
I305
aI18
aa(lp6420
I306
aI18
aa(lp6421
I307
aI18
aa(lp6422
I308
aI17
aa(lp6423
I309
aI17
aa(lp6424
I310
aI17
aa(lp6425
I311
aI16
aa(lp6426
I312
aI27
aa(lp6427
I313
aI27
aa(lp6428
I314
aI26
aa(lp6429
I315
aI26
aa(lp6430
I316
aI26
aa(lp6431
I317
aI25
aa(lp6432
I318
aI25
aa(lp6433
I319
aI25
aa(lp6434
I375
aI25
aa(lp6435
I376
aI25
aa(lp6436
I377
aI25
aa(lp6437
I378
aI25
aa(lp6438
I379
aI26
aa(lp6439
I380
aI26
aa(lp6440
I381
aI26
aa(lp6441
I382
aI37
aa(lp6442
I383
aI37
aa(lp6443
I384
aI38
aa(lp6444
I385
aI38
aa(lp6445
I386
aI38
aa(lp6446
I387
aI38
aa(lp6447
I388
aI38
aa(lp6448
I389
aI39
aa(lp6449
I445
aI27
aa(lp6450
I446
aI27
aa(lp6451
I447
aI27
aa(lp6452
I448
aI27
aa(lp6453
I449
aI27
aa(lp6454
I450
aI27
aa(lp6455
I451
aI27
aa(lp6456
I452
aI15
aa(lp6457
I453
aI15
aa(lp6458
I454
aI15
aa(lp6459
I455
aI15
aa(lp6460
I456
aI15
aa(lp6461
I457
aI15
aa(lp6462
I458
aI15
aa(lp6463
I459
aI14
aa(lp6464
I470
aI14
aa(lp6465
I471
aI14
aa(lp6466
I472
aI14
aa(lp6467
I473
aI14
aa(lp6468
I474
aI14
aa(lp6469
I475
aI14
aa(lp6470
I476
aI14
aa(lp6471
I477
aI25
aa(lp6472
I478
aI25
aa(lp6473
I479
aI25
aa(lp6474
I480
aI25
aa(lp6475
I481
aI25
aa(lp6476
I482
aI25
aa(lp6477
I483
aI25
aa(lp6478
I484
aI25
aa(lp6479
I540
aI14
aa(lp6480
I541
aI14
aa(lp6481
I542
aI14
aa(lp6482
I543
aI14
aa(lp6483
I544
aI14
aa(lp6484
I545
aI14
aa(lp6485
I546
aI14
aa(lp6486
I547
aI15
aa(lp6487
I548
aI15
aa(lp6488
I549
aI15
aa(lp6489
I550
aI15
aa(lp6490
I551
aI15
aa(lp6491
I552
aI15
aa(lp6492
I553
aI15
aa(lp6493
I554
aI16
aatp6494
Rp6495
sI44
g71
((lp6496
(lp6497
I0
aI33
aa(lp6498
I1
aI34
aa(lp6499
I2
aI34
aa(lp6500
I3
aI35
aa(lp6501
I4
aI25
aa(lp6502
I5
aI25
aa(lp6503
I6
aI26
aa(lp6504
I7
aI26
aa(lp6505
I8
aI27
aa(lp6506
I9
aI16
aa(lp6507
I10
aI17
aa(lp6508
I11
aI18
aa(lp6509
I12
aI18
aa(lp6510
I13
aI19
aa(lp6511
I14
aI8
aa(lp6512
I70
aI8
aa(lp6513
I71
aI8
aa(lp6514
I72
aI8
aa(lp6515
I73
aI8
aa(lp6516
I74
aI8
aa(lp6517
I75
aI8
aa(lp6518
I76
aI8
aa(lp6519
I77
aI8
aa(lp6520
I78
aI8
aa(lp6521
I79
aI8
aa(lp6522
I80
aI8
aa(lp6523
I81
aI8
aa(lp6524
I82
aI8
aa(lp6525
I83
aI8
aa(lp6526
I84
aI8
aa(lp6527
I140
aI7
aa(lp6528
I141
aI7
aa(lp6529
I142
aI18
aa(lp6530
I143
aI17
aa(lp6531
I144
aI17
aa(lp6532
I145
aI17
aa(lp6533
I146
aI27
aa(lp6534
I147
aI27
aa(lp6535
I148
aI38
aa(lp6536
I149
aI37
aa(lp6537
I150
aI37
aa(lp6538
I151
aI48
aa(lp6539
I152
aI47
aa(lp6540
I153
aI47
aa(lp6541
I154
aI47
aa(lp6542
I165
aI46
aa(lp6543
I166
aI46
aa(lp6544
I167
aI46
aa(lp6545
I168
aI46
aa(lp6546
I169
aI46
aa(lp6547
I170
aI46
aa(lp6548
I171
aI46
aa(lp6549
I172
aI45
aa(lp6550
I173
aI45
aa(lp6551
I174
aI45
aa(lp6552
I175
aI45
aa(lp6553
I176
aI45
aa(lp6554
I177
aI45
aa(lp6555
I178
aI45
aa(lp6556
I179
aI45
aa(lp6557
I235
aI34
aa(lp6558
I236
aI34
aa(lp6559
I237
aI34
aa(lp6560
I238
aI34
aa(lp6561
I239
aI23
aa(lp6562
I240
aI23
aa(lp6563
I241
aI23
aa(lp6564
I242
aI23
aa(lp6565
I243
aI23
aa(lp6566
I244
aI12
aa(lp6567
I245
aI12
aa(lp6568
I246
aI12
aa(lp6569
I247
aI12
aa(lp6570
I248
aI12
aa(lp6571
I249
aI1
aa(lp6572
I305
aI1
aa(lp6573
I306
aI1
aa(lp6574
I307
aI12
aa(lp6575
I308
aI12
aa(lp6576
I309
aI12
aa(lp6577
I310
aI12
aa(lp6578
I311
aI23
aa(lp6579
I312
aI23
aa(lp6580
I313
aI34
aa(lp6581
I314
aI34
aa(lp6582
I315
aI34
aa(lp6583
I316
aI45
aa(lp6584
I317
aI45
aa(lp6585
I318
aI45
aa(lp6586
I319
aI45
aa(lp6587
I375
aI45
aa(lp6588
I376
aI45
aa(lp6589
I377
aI45
aa(lp6590
I378
aI46
aa(lp6591
I379
aI46
aa(lp6592
I380
aI47
aa(lp6593
I381
aI47
aa(lp6594
I382
aI47
aa(lp6595
I383
aI48
aa(lp6596
I384
aI48
aa(lp6597
I385
aI48
aa(lp6598
I386
aI48
aa(lp6599
I387
aI49
aa(lp6600
I388
aI49
aa(lp6601
I389
aI49
aa(lp6602
I445
aI38
aa(lp6603
I446
aI38
aa(lp6604
I447
aI38
aa(lp6605
I448
aI38
aa(lp6606
I449
aI28
aa(lp6607
I450
aI28
aa(lp6608
I451
aI28
aa(lp6609
I452
aI28
aa(lp6610
I453
aI28
aa(lp6611
I454
aI18
aa(lp6612
I455
aI18
aa(lp6613
I456
aI18
aa(lp6614
I457
aI18
aa(lp6615
I458
aI18
aa(lp6616
I459
aI8
aa(lp6617
I470
aI7
aa(lp6618
I471
aI7
aa(lp6619
I472
aI17
aa(lp6620
I473
aI17
aa(lp6621
I474
aI16
aa(lp6622
I475
aI16
aa(lp6623
I476
aI26
aa(lp6624
I477
aI26
aa(lp6625
I478
aI36
aa(lp6626
I479
aI36
aa(lp6627
I480
aI35
aa(lp6628
I481
aI46
aa(lp6629
I482
aI45
aa(lp6630
I483
aI45
aa(lp6631
I484
aI44
aa(lp6632
I540
aI33
aa(lp6633
I541
aI33
aa(lp6634
I542
aI34
aa(lp6635
I543
aI34
aa(lp6636
I544
aI23
aa(lp6637
I545
aI23
aa(lp6638
I546
aI24
aa(lp6639
I547
aI24
aa(lp6640
I548
aI25
aa(lp6641
I549
aI14
aa(lp6642
I550
aI14
aa(lp6643
I551
aI15
aa(lp6644
I552
aI15
aa(lp6645
I553
aI15
aa(lp6646
I554
aI4
aatp6647
Rp6648
sI45
g71
((lp6649
(lp6650
I0
aI34
aa(lp6651
I1
aI35
aa(lp6652
I2
aI35
aa(lp6653
I3
aI36
aa(lp6654
I4
aI25
aa(lp6655
I5
aI26
aa(lp6656
I6
aI26
aa(lp6657
I7
aI27
aa(lp6658
I8
aI27
aa(lp6659
I9
aI17
aa(lp6660
I10
aI17
aa(lp6661
I11
aI18
aa(lp6662
I12
aI18
aa(lp6663
I13
aI19
aa(lp6664
I14
aI8
aa(lp6665
I70
aI8
aa(lp6666
I71
aI8
aa(lp6667
I72
aI8
aa(lp6668
I73
aI8
aa(lp6669
I74
aI8
aa(lp6670
I75
aI8
aa(lp6671
I76
aI8
aa(lp6672
I77
aI8
aa(lp6673
I78
aI8
aa(lp6674
I79
aI8
aa(lp6675
I80
aI8
aa(lp6676
I81
aI8
aa(lp6677
I82
aI8
aa(lp6678
I83
aI8
aa(lp6679
I84
aI8
aa(lp6680
I140
aI7
aa(lp6681
I141
aI7
aa(lp6682
I142
aI6
aa(lp6683
I143
aI6
aa(lp6684
I144
aI5
aa(lp6685
I145
aI5
aa(lp6686
I146
aI4
aa(lp6687
I147
aI4
aa(lp6688
I148
aI3
aa(lp6689
I149
aI3
aa(lp6690
I150
aI2
aa(lp6691
I151
aI2
aa(lp6692
I152
aI1
aa(lp6693
I153
aI1
aa(lp6694
I154
aI0
aa(lp6695
I165
aI0
aa(lp6696
I166
aI0
aa(lp6697
I167
aI1
aa(lp6698
I168
aI12
aa(lp6699
I169
aI13
aa(lp6700
I170
aI13
aa(lp6701
I171
aI14
aa(lp6702
I172
aI25
aa(lp6703
I173
aI26
aa(lp6704
I174
aI26
aa(lp6705
I175
aI27
aa(lp6706
I176
aI38
aa(lp6707
I177
aI39
aa(lp6708
I178
aI39
aa(lp6709
I179
aI40
aa(lp6710
I235
aI28
aa(lp6711
I236
aI28
aa(lp6712
I237
aI28
aa(lp6713
I238
aI27
aa(lp6714
I239
aI16
aa(lp6715
I240
aI16
aa(lp6716
I241
aI15
aa(lp6717
I242
aI15
aa(lp6718
I243
aI15
aa(lp6719
I244
aI3
aa(lp6720
I245
aI3
aa(lp6721
I246
aI3
aa(lp6722
I247
aI2
aa(lp6723
I248
aI2
aa(lp6724
I249
aI2
aa(lp6725
I305
aI2
aa(lp6726
I306
aI2
aa(lp6727
I307
aI3
aa(lp6728
I308
aI14
aa(lp6729
I309
aI14
aa(lp6730
I310
aI15
aa(lp6731
I311
aI15
aa(lp6732
I312
aI26
aa(lp6733
I313
aI27
aa(lp6734
I314
aI27
aa(lp6735
I315
aI27
aa(lp6736
I316
aI38
aa(lp6737
I317
aI39
aa(lp6738
I318
aI39
aa(lp6739
I319
aI39
aa(lp6740
I375
aI39
aa(lp6741
I376
aI39
aa(lp6742
I377
aI39
aa(lp6743
I378
aI39
aa(lp6744
I379
aI39
aa(lp6745
I380
aI39
aa(lp6746
I381
aI39
aa(lp6747
I382
aI39
aa(lp6748
I383
aI39
aa(lp6749
I384
aI39
aa(lp6750
I385
aI39
aa(lp6751
I386
aI39
aa(lp6752
I387
aI39
aa(lp6753
I388
aI39
aa(lp6754
I389
aI50
aa(lp6755
I445
aI38
aa(lp6756
I446
aI38
aa(lp6757
I447
aI38
aa(lp6758
I448
aI38
aa(lp6759
I449
aI27
aa(lp6760
I450
aI27
aa(lp6761
I451
aI27
aa(lp6762
I452
aI26
aa(lp6763
I453
aI26
aa(lp6764
I454
aI15
aa(lp6765
I455
aI15
aa(lp6766
I456
aI15
aa(lp6767
I457
aI15
aa(lp6768
I458
aI15
aa(lp6769
I459
aI3
aa(lp6770
I470
aI3
aa(lp6771
I471
aI3
aa(lp6772
I472
aI3
aa(lp6773
I473
aI15
aa(lp6774
I474
aI15
aa(lp6775
I475
aI15
aa(lp6776
I476
aI15
aa(lp6777
I477
aI27
aa(lp6778
I478
aI27
aa(lp6779
I479
aI27
aa(lp6780
I480
aI27
aa(lp6781
I481
aI39
aa(lp6782
I482
aI39
aa(lp6783
I483
aI39
aa(lp6784
I484
aI39
aa(lp6785
I540
aI27
aa(lp6786
I541
aI27
aa(lp6787
I542
aI27
aa(lp6788
I543
aI27
aa(lp6789
I544
aI27
aa(lp6790
I545
aI27
aa(lp6791
I546
aI27
aa(lp6792
I547
aI16
aa(lp6793
I548
aI16
aa(lp6794
I549
aI16
aa(lp6795
I550
aI16
aa(lp6796
I551
aI16
aa(lp6797
I552
aI16
aa(lp6798
I553
aI16
aa(lp6799
I554
aI16
aatp6800
Rp6801
sI46
g71
((lp6802
(lp6803
I0
aI35
aa(lp6804
I1
aI36
aa(lp6805
I2
aI36
aa(lp6806
I3
aI37
aa(lp6807
I4
aI26
aa(lp6808
I5
aI27
aa(lp6809
I6
aI27
aa(lp6810
I7
aI28
aa(lp6811
I8
aI28
aa(lp6812
I9
aI18
aa(lp6813
I10
aI18
aa(lp6814
I11
aI19
aa(lp6815
I12
aI19
aa(lp6816
I13
aI20
aa(lp6817
I14
aI9
aa(lp6818
I70
aI9
aa(lp6819
I71
aI9
aa(lp6820
I72
aI9
aa(lp6821
I73
aI9
aa(lp6822
I74
aI9
aa(lp6823
I75
aI9
aa(lp6824
I76
aI9
aa(lp6825
I77
aI9
aa(lp6826
I78
aI9
aa(lp6827
I79
aI9
aa(lp6828
I80
aI9
aa(lp6829
I81
aI9
aa(lp6830
I82
aI9
aa(lp6831
I83
aI9
aa(lp6832
I84
aI9
aa(lp6833
I140
aI8
aa(lp6834
I141
aI8
aa(lp6835
I142
aI18
aa(lp6836
I143
aI18
aa(lp6837
I144
aI17
aa(lp6838
I145
aI17
aa(lp6839
I146
aI28
aa(lp6840
I147
aI27
aa(lp6841
I148
aI38
aa(lp6842
I149
aI37
aa(lp6843
I150
aI37
aa(lp6844
I151
aI48
aa(lp6845
I152
aI47
aa(lp6846
I153
aI47
aa(lp6847
I154
aI46
aa(lp6848
I165
aI35
aa(lp6849
I166
aI35
aa(lp6850
I167
aI35
aa(lp6851
I168
aI35
aa(lp6852
I169
aI35
aa(lp6853
I170
aI35
aa(lp6854
I171
aI35
aa(lp6855
I172
aI35
aa(lp6856
I173
aI35
aa(lp6857
I174
aI35
aa(lp6858
I175
aI35
aa(lp6859
I176
aI35
aa(lp6860
I177
aI35
aa(lp6861
I178
aI35
aa(lp6862
I179
aI25
aa(lp6863
I235
aI13
aa(lp6864
I236
aI13
aa(lp6865
I237
aI13
aa(lp6866
I238
aI13
aa(lp6867
I239
aI13
aa(lp6868
I240
aI13
aa(lp6869
I241
aI13
aa(lp6870
I242
aI2
aa(lp6871
I243
aI2
aa(lp6872
I244
aI2
aa(lp6873
I245
aI2
aa(lp6874
I246
aI2
aa(lp6875
I247
aI2
aa(lp6876
I248
aI2
aa(lp6877
I249
aI1
aa(lp6878
I305
aI1
aa(lp6879
I306
aI1
aa(lp6880
I307
aI1
aa(lp6881
I308
aI1
aa(lp6882
I309
aI12
aa(lp6883
I310
aI12
aa(lp6884
I311
aI12
aa(lp6885
I312
aI13
aa(lp6886
I313
aI13
aa(lp6887
I314
aI13
aa(lp6888
I315
aI24
aa(lp6889
I316
aI24
aa(lp6890
I317
aI24
aa(lp6891
I318
aI24
aa(lp6892
I319
aI35
aa(lp6893
I375
aI24
aa(lp6894
I376
aI24
aa(lp6895
I377
aI25
aa(lp6896
I378
aI25
aa(lp6897
I379
aI26
aa(lp6898
I380
aI26
aa(lp6899
I381
aI27
aa(lp6900
I382
aI16
aa(lp6901
I383
aI17
aa(lp6902
I384
aI17
aa(lp6903
I385
aI18
aa(lp6904
I386
aI18
aa(lp6905
I387
aI19
aa(lp6906
I388
aI19
aa(lp6907
I389
aI20
aa(lp6908
I445
aI19
aa(lp6909
I446
aI19
aa(lp6910
I447
aI19
aa(lp6911
I448
aI19
aa(lp6912
I449
aI19
aa(lp6913
I450
aI19
aa(lp6914
I451
aI19
aa(lp6915
I452
aI19
aa(lp6916
I453
aI19
aa(lp6917
I454
aI19
aa(lp6918
I455
aI19
aa(lp6919
I456
aI19
aa(lp6920
I457
aI19
aa(lp6921
I458
aI19
aa(lp6922
I459
aI19
aa(lp6923
I470
aI18
aa(lp6924
I471
aI18
aa(lp6925
I472
aI18
aa(lp6926
I473
aI17
aa(lp6927
I474
aI17
aa(lp6928
I475
aI17
aa(lp6929
I476
aI16
aa(lp6930
I477
aI27
aa(lp6931
I478
aI27
aa(lp6932
I479
aI26
aa(lp6933
I480
aI26
aa(lp6934
I481
aI26
aa(lp6935
I482
aI25
aa(lp6936
I483
aI25
aa(lp6937
I484
aI25
aa(lp6938
I540
aI25
aa(lp6939
I541
aI25
aa(lp6940
I542
aI26
aa(lp6941
I543
aI26
aa(lp6942
I544
aI27
aa(lp6943
I545
aI27
aa(lp6944
I546
aI28
aa(lp6945
I547
aI39
aa(lp6946
I548
aI40
aa(lp6947
I549
aI40
aa(lp6948
I550
aI41
aa(lp6949
I551
aI41
aa(lp6950
I552
aI42
aa(lp6951
I553
aI42
aa(lp6952
I554
aI43
aatp6953
Rp6954
sI47
g71
((lp6955
(lp6956
I0
aI36
aa(lp6957
I1
aI36
aa(lp6958
I2
aI37
aa(lp6959
I3
aI37
aa(lp6960
I4
aI27
aa(lp6961
I5
aI27
aa(lp6962
I6
aI27
aa(lp6963
I7
aI28
aa(lp6964
I8
aI28
aa(lp6965
I9
aI18
aa(lp6966
I10
aI18
aa(lp6967
I11
aI18
aa(lp6968
I12
aI19
aa(lp6969
I13
aI19
aa(lp6970
I14
aI9
aa(lp6971
I70
aI9
aa(lp6972
I71
aI9
aa(lp6973
I72
aI9
aa(lp6974
I73
aI9
aa(lp6975
I74
aI9
aa(lp6976
I75
aI9
aa(lp6977
I76
aI9
aa(lp6978
I77
aI9
aa(lp6979
I78
aI9
aa(lp6980
I79
aI9
aa(lp6981
I80
aI9
aa(lp6982
I81
aI9
aa(lp6983
I82
aI9
aa(lp6984
I83
aI9
aa(lp6985
I84
aI9
aa(lp6986
I140
aI8
aa(lp6987
I141
aI7
aa(lp6988
I142
aI7
aa(lp6989
I143
aI6
aa(lp6990
I144
aI6
aa(lp6991
I145
aI5
aa(lp6992
I146
aI5
aa(lp6993
I147
aI4
aa(lp6994
I148
aI4
aa(lp6995
I149
aI3
aa(lp6996
I150
aI3
aa(lp6997
I151
aI2
aa(lp6998
I152
aI2
aa(lp6999
I153
aI1
aa(lp7000
I154
aI1
aa(lp7001
I165
aI1
aa(lp7002
I166
aI1
aa(lp7003
I167
aI1
aa(lp7004
I168
aI12
aa(lp7005
I169
aI12
aa(lp7006
I170
aI12
aa(lp7007
I171
aI12
aa(lp7008
I172
aI23
aa(lp7009
I173
aI23
aa(lp7010
I174
aI23
aa(lp7011
I175
aI23
aa(lp7012
I176
aI34
aa(lp7013
I177
aI34
aa(lp7014
I178
aI34
aa(lp7015
I179
aI34
aa(lp7016
I235
aI23
aa(lp7017
I236
aI23
aa(lp7018
I237
aI23
aa(lp7019
I238
aI23
aa(lp7020
I239
aI12
aa(lp7021
I240
aI12
aa(lp7022
I241
aI12
aa(lp7023
I242
aI12
aa(lp7024
I243
aI12
aa(lp7025
I244
aI1
aa(lp7026
I245
aI1
aa(lp7027
I246
aI1
aa(lp7028
I247
aI1
aa(lp7029
I248
aI1
aa(lp7030
I249
aI1
aa(lp7031
I305
aI1
aa(lp7032
I306
aI1
aa(lp7033
I307
aI1
aa(lp7034
I308
aI12
aa(lp7035
I309
aI12
aa(lp7036
I310
aI12
aa(lp7037
I311
aI12
aa(lp7038
I312
aI23
aa(lp7039
I313
aI23
aa(lp7040
I314
aI23
aa(lp7041
I315
aI23
aa(lp7042
I316
aI34
aa(lp7043
I317
aI34
aa(lp7044
I318
aI34
aa(lp7045
I319
aI34
aa(lp7046
I375
aI34
aa(lp7047
I376
aI34
aa(lp7048
I377
aI34
aa(lp7049
I378
aI35
aa(lp7050
I379
aI35
aa(lp7051
I380
aI36
aa(lp7052
I381
aI36
aa(lp7053
I382
aI36
aa(lp7054
I383
aI37
aa(lp7055
I384
aI37
aa(lp7056
I385
aI37
aa(lp7057
I386
aI37
aa(lp7058
I387
aI38
aa(lp7059
I388
aI38
aa(lp7060
I389
aI49
aa(lp7061
I445
aI37
aa(lp7062
I446
aI37
aa(lp7063
I447
aI37
aa(lp7064
I448
aI37
aa(lp7065
I449
aI26
aa(lp7066
I450
aI26
aa(lp7067
I451
aI26
aa(lp7068
I452
aI26
aa(lp7069
I453
aI26
aa(lp7070
I454
aI15
aa(lp7071
I455
aI15
aa(lp7072
I456
aI15
aa(lp7073
I457
aI15
aa(lp7074
I458
aI15
aa(lp7075
I459
aI4
aa(lp7076
I470
aI3
aa(lp7077
I471
aI3
aa(lp7078
I472
aI3
aa(lp7079
I473
aI14
aa(lp7080
I474
aI14
aa(lp7081
I475
aI14
aa(lp7082
I476
aI14
aa(lp7083
I477
aI24
aa(lp7084
I478
aI24
aa(lp7085
I479
aI24
aa(lp7086
I480
aI24
aa(lp7087
I481
aI35
aa(lp7088
I482
aI35
aa(lp7089
I483
aI35
aa(lp7090
I484
aI35
aa(lp7091
I540
aI35
aa(lp7092
I541
aI36
aa(lp7093
I542
aI36
aa(lp7094
I543
aI37
aa(lp7095
I544
aI37
aa(lp7096
I545
aI38
aa(lp7097
I546
aI38
aa(lp7098
I547
aI39
aa(lp7099
I548
aI39
aa(lp7100
I549
aI40
aa(lp7101
I550
aI40
aa(lp7102
I551
aI41
aa(lp7103
I552
aI41
aa(lp7104
I553
aI42
aa(lp7105
I554
aI53
aatp7106
Rp7107
sI48
g71
((lp7108
(lp7109
I0
aI37
aa(lp7110
I1
aI37
aa(lp7111
I2
aI38
aa(lp7112
I3
aI38
aa(lp7113
I4
aI28
aa(lp7114
I5
aI28
aa(lp7115
I6
aI28
aa(lp7116
I7
aI29
aa(lp7117
I8
aI29
aa(lp7118
I9
aI19
aa(lp7119
I10
aI19
aa(lp7120
I11
aI19
aa(lp7121
I12
aI20
aa(lp7122
I13
aI20
aa(lp7123
I14
aI10
aa(lp7124
I70
aI10
aa(lp7125
I71
aI10
aa(lp7126
I72
aI10
aa(lp7127
I73
aI10
aa(lp7128
I74
aI10
aa(lp7129
I75
aI10
aa(lp7130
I76
aI10
aa(lp7131
I77
aI10
aa(lp7132
I78
aI10
aa(lp7133
I79
aI10
aa(lp7134
I80
aI10
aa(lp7135
I81
aI10
aa(lp7136
I82
aI10
aa(lp7137
I83
aI10
aa(lp7138
I84
aI10
aa(lp7139
I140
aI9
aa(lp7140
I141
aI8
aa(lp7141
I142
aI8
aa(lp7142
I143
aI7
aa(lp7143
I144
aI7
aa(lp7144
I145
aI6
aa(lp7145
I146
aI5
aa(lp7146
I147
aI5
aa(lp7147
I148
aI4
aa(lp7148
I149
aI4
aa(lp7149
I150
aI3
aa(lp7150
I151
aI2
aa(lp7151
I152
aI2
aa(lp7152
I153
aI1
aa(lp7153
I154
aI1
aa(lp7154
I165
aI1
aa(lp7155
I166
aI1
aa(lp7156
I167
aI1
aa(lp7157
I168
aI1
aa(lp7158
I169
aI12
aa(lp7159
I170
aI12
aa(lp7160
I171
aI12
aa(lp7161
I172
aI13
aa(lp7162
I173
aI13
aa(lp7163
I174
aI13
aa(lp7164
I175
aI24
aa(lp7165
I176
aI24
aa(lp7166
I177
aI24
aa(lp7167
I178
aI24
aa(lp7168
I179
aI35
aa(lp7169
I235
aI24
aa(lp7170
I236
aI24
aa(lp7171
I237
aI24
aa(lp7172
I238
aI24
aa(lp7173
I239
aI24
aa(lp7174
I240
aI24
aa(lp7175
I241
aI24
aa(lp7176
I242
aI13
aa(lp7177
I243
aI13
aa(lp7178
I244
aI13
aa(lp7179
I245
aI13
aa(lp7180
I246
aI13
aa(lp7181
I247
aI13
aa(lp7182
I248
aI13
aa(lp7183
I249
aI13
aa(lp7184
I305
aI13
aa(lp7185
I306
aI13
aa(lp7186
I307
aI13
aa(lp7187
I308
aI13
aa(lp7188
I309
aI13
aa(lp7189
I310
aI13
aa(lp7190
I311
aI13
aa(lp7191
I312
aI24
aa(lp7192
I313
aI24
aa(lp7193
I314
aI24
aa(lp7194
I315
aI24
aa(lp7195
I316
aI24
aa(lp7196
I317
aI24
aa(lp7197
I318
aI24
aa(lp7198
I319
aI25
aa(lp7199
I375
aI14
aa(lp7200
I376
aI14
aa(lp7201
I377
aI15
aa(lp7202
I378
aI15
aa(lp7203
I379
aI16
aa(lp7204
I380
aI16
aa(lp7205
I381
aI16
aa(lp7206
I382
aI17
aa(lp7207
I383
aI17
aa(lp7208
I384
aI18
aa(lp7209
I385
aI18
aa(lp7210
I386
aI18
aa(lp7211
I387
aI19
aa(lp7212
I388
aI19
aa(lp7213
I389
aI20
aa(lp7214
I445
aI19
aa(lp7215
I446
aI19
aa(lp7216
I447
aI19
aa(lp7217
I448
aI19
aa(lp7218
I449
aI19
aa(lp7219
I450
aI19
aa(lp7220
I451
aI19
aa(lp7221
I452
aI19
aa(lp7222
I453
aI19
aa(lp7223
I454
aI19
aa(lp7224
I455
aI19
aa(lp7225
I456
aI19
aa(lp7226
I457
aI19
aa(lp7227
I458
aI19
aa(lp7228
I459
aI19
aa(lp7229
I470
aI18
aa(lp7230
I471
aI18
aa(lp7231
I472
aI18
aa(lp7232
I473
aI17
aa(lp7233
I474
aI17
aa(lp7234
I475
aI17
aa(lp7235
I476
aI16
aa(lp7236
I477
aI27
aa(lp7237
I478
aI27
aa(lp7238
I479
aI26
aa(lp7239
I480
aI26
aa(lp7240
I481
aI26
aa(lp7241
I482
aI25
aa(lp7242
I483
aI25
aa(lp7243
I484
aI25
aa(lp7244
I540
aI25
aa(lp7245
I541
aI25
aa(lp7246
I542
aI26
aa(lp7247
I543
aI26
aa(lp7248
I544
aI27
aa(lp7249
I545
aI27
aa(lp7250
I546
aI28
aa(lp7251
I547
aI39
aa(lp7252
I548
aI40
aa(lp7253
I549
aI40
aa(lp7254
I550
aI41
aa(lp7255
I551
aI41
aa(lp7256
I552
aI42
aa(lp7257
I553
aI42
aa(lp7258
I554
aI43
aatp7259
Rp7260
sI49
g71
((lp7261
(lp7262
I0
aI38
aa(lp7263
I1
aI38
aa(lp7264
I2
aI38
aa(lp7265
I3
aI38
aa(lp7266
I4
aI27
aa(lp7267
I5
aI27
aa(lp7268
I6
aI27
aa(lp7269
I7
aI28
aa(lp7270
I8
aI28
aa(lp7271
I9
aI17
aa(lp7272
I10
aI17
aa(lp7273
I11
aI17
aa(lp7274
I12
aI17
aa(lp7275
I13
aI17
aa(lp7276
I14
aI7
aa(lp7277
I70
aI7
aa(lp7278
I71
aI7
aa(lp7279
I72
aI7
aa(lp7280
I73
aI7
aa(lp7281
I74
aI7
aa(lp7282
I75
aI7
aa(lp7283
I76
aI7
aa(lp7284
I77
aI7
aa(lp7285
I78
aI7
aa(lp7286
I79
aI7
aa(lp7287
I80
aI7
aa(lp7288
I81
aI7
aa(lp7289
I82
aI7
aa(lp7290
I83
aI7
aa(lp7291
I84
aI7
aa(lp7292
I140
aI6
aa(lp7293
I141
aI6
aa(lp7294
I142
aI5
aa(lp7295
I143
aI5
aa(lp7296
I144
aI4
aa(lp7297
I145
aI4
aa(lp7298
I146
aI4
aa(lp7299
I147
aI3
aa(lp7300
I148
aI3
aa(lp7301
I149
aI2
aa(lp7302
I150
aI2
aa(lp7303
I151
aI2
aa(lp7304
I152
aI1
aa(lp7305
I153
aI1
aa(lp7306
I154
aI0
aa(lp7307
I165
aI0
aa(lp7308
I166
aI0
aa(lp7309
I167
aI1
aa(lp7310
I168
aI1
aa(lp7311
I169
aI12
aa(lp7312
I170
aI12
aa(lp7313
I171
aI13
aa(lp7314
I172
aI13
aa(lp7315
I173
aI14
aa(lp7316
I174
aI14
aa(lp7317
I175
aI25
aa(lp7318
I176
aI26
aa(lp7319
I177
aI26
aa(lp7320
I178
aI26
aa(lp7321
I179
aI37
aa(lp7322
I235
aI25
aa(lp7323
I236
aI25
aa(lp7324
I237
aI25
aa(lp7325
I238
aI25
aa(lp7326
I239
aI14
aa(lp7327
I240
aI14
aa(lp7328
I241
aI14
aa(lp7329
I242
aI13
aa(lp7330
I243
aI13
aa(lp7331
I244
aI2
aa(lp7332
I245
aI2
aa(lp7333
I246
aI2
aa(lp7334
I247
aI2
aa(lp7335
I248
aI2
aa(lp7336
I249
aI2
aa(lp7337
I305
aI2
aa(lp7338
I306
aI2
aa(lp7339
I307
aI2
aa(lp7340
I308
aI2
aa(lp7341
I309
aI14
aa(lp7342
I310
aI14
aa(lp7343
I311
aI14
aa(lp7344
I312
aI14
aa(lp7345
I313
aI14
aa(lp7346
I314
aI15
aa(lp7347
I315
aI26
aa(lp7348
I316
aI26
aa(lp7349
I317
aI26
aa(lp7350
I318
aI26
aa(lp7351
I319
aI38
aa(lp7352
I375
aI38
aa(lp7353
I376
aI38
aa(lp7354
I377
aI38
aa(lp7355
I378
aI38
aa(lp7356
I379
aI38
aa(lp7357
I380
aI38
aa(lp7358
I381
aI38
aa(lp7359
I382
aI38
aa(lp7360
I383
aI38
aa(lp7361
I384
aI38
aa(lp7362
I385
aI38
aa(lp7363
I386
aI38
aa(lp7364
I387
aI38
aa(lp7365
I388
aI38
aa(lp7366
I389
aI49
aa(lp7367
I445
aI38
aa(lp7368
I446
aI38
aa(lp7369
I447
aI38
aa(lp7370
I448
aI38
aa(lp7371
I449
aI28
aa(lp7372
I450
aI28
aa(lp7373
I451
aI28
aa(lp7374
I452
aI28
aa(lp7375
I453
aI28
aa(lp7376
I454
aI18
aa(lp7377
I455
aI18
aa(lp7378
I456
aI18
aa(lp7379
I457
aI18
aa(lp7380
I458
aI18
aa(lp7381
I459
aI8
aa(lp7382
I470
aI7
aa(lp7383
I471
aI7
aa(lp7384
I472
aI7
aa(lp7385
I473
aI7
aa(lp7386
I474
aI17
aa(lp7387
I475
aI17
aa(lp7388
I476
aI17
aa(lp7389
I477
aI17
aa(lp7390
I478
aI17
aa(lp7391
I479
aI16
aa(lp7392
I480
aI27
aa(lp7393
I481
aI27
aa(lp7394
I482
aI27
aa(lp7395
I483
aI27
aa(lp7396
I484
aI37
aa(lp7397
I540
aI37
aa(lp7398
I541
aI37
aa(lp7399
I542
aI38
aa(lp7400
I543
aI38
aa(lp7401
I544
aI39
aa(lp7402
I545
aI39
aa(lp7403
I546
aI39
aa(lp7404
I547
aI40
aa(lp7405
I548
aI40
aa(lp7406
I549
aI41
aa(lp7407
I550
aI41
aa(lp7408
I551
aI41
aa(lp7409
I552
aI42
aa(lp7410
I553
aI42
aa(lp7411
I554
aI54
aatp7412
Rp7413
sI50
g71
((lp7414
(lp7415
I0
aI39
aa(lp7416
I1
aI39
aa(lp7417
I2
aI39
aa(lp7418
I3
aI39
aa(lp7419
I4
aI28
aa(lp7420
I5
aI28
aa(lp7421
I6
aI28
aa(lp7422
I7
aI28
aa(lp7423
I8
aI28
aa(lp7424
I9
aI17
aa(lp7425
I10
aI17
aa(lp7426
I11
aI17
aa(lp7427
I12
aI17
aa(lp7428
I13
aI17
aa(lp7429
I14
aI6
aa(lp7430
I70
aI6
aa(lp7431
I71
aI6
aa(lp7432
I72
aI6
aa(lp7433
I73
aI6
aa(lp7434
I74
aI6
aa(lp7435
I75
aI6
aa(lp7436
I76
aI6
aa(lp7437
I77
aI6
aa(lp7438
I78
aI6
aa(lp7439
I79
aI6
aa(lp7440
I80
aI6
aa(lp7441
I81
aI6
aa(lp7442
I82
aI6
aa(lp7443
I83
aI6
aa(lp7444
I84
aI6
aa(lp7445
I140
aI5
aa(lp7446
I141
aI5
aa(lp7447
I142
aI5
aa(lp7448
I143
aI4
aa(lp7449
I144
aI4
aa(lp7450
I145
aI4
aa(lp7451
I146
aI3
aa(lp7452
I147
aI3
aa(lp7453
I148
aI3
aa(lp7454
I149
aI2
aa(lp7455
I150
aI2
aa(lp7456
I151
aI2
aa(lp7457
I152
aI1
aa(lp7458
I153
aI1
aa(lp7459
I154
aI1
aa(lp7460
I165
aI1
aa(lp7461
I166
aI1
aa(lp7462
I167
aI12
aa(lp7463
I168
aI12
aa(lp7464
I169
aI12
aa(lp7465
I170
aI12
aa(lp7466
I171
aI23
aa(lp7467
I172
aI23
aa(lp7468
I173
aI34
aa(lp7469
I174
aI34
aa(lp7470
I175
aI34
aa(lp7471
I176
aI45
aa(lp7472
I177
aI45
aa(lp7473
I178
aI45
aa(lp7474
I179
aI45
aa(lp7475
I235
aI34
aa(lp7476
I236
aI34
aa(lp7477
I237
aI34
aa(lp7478
I238
aI23
aa(lp7479
I239
aI23
aa(lp7480
I240
aI23
aa(lp7481
I241
aI23
aa(lp7482
I242
aI12
aa(lp7483
I243
aI12
aa(lp7484
I244
aI12
aa(lp7485
I245
aI12
aa(lp7486
I246
aI1
aa(lp7487
I247
aI1
aa(lp7488
I248
aI1
aa(lp7489
I249
aI1
aa(lp7490
I305
aI1
aa(lp7491
I306
aI1
aa(lp7492
I307
aI12
aa(lp7493
I308
aI12
aa(lp7494
I309
aI12
aa(lp7495
I310
aI12
aa(lp7496
I311
aI23
aa(lp7497
I312
aI23
aa(lp7498
I313
aI34
aa(lp7499
I314
aI34
aa(lp7500
I315
aI34
aa(lp7501
I316
aI45
aa(lp7502
I317
aI45
aa(lp7503
I318
aI45
aa(lp7504
I319
aI45
aa(lp7505
I375
aI45
aa(lp7506
I376
aI45
aa(lp7507
I377
aI45
aa(lp7508
I378
aI46
aa(lp7509
I379
aI46
aa(lp7510
I380
aI47
aa(lp7511
I381
aI47
aa(lp7512
I382
aI47
aa(lp7513
I383
aI48
aa(lp7514
I384
aI48
aa(lp7515
I385
aI48
aa(lp7516
I386
aI48
aa(lp7517
I387
aI49
aa(lp7518
I388
aI49
aa(lp7519
I389
aI49
aa(lp7520
I445
aI37
aa(lp7521
I446
aI37
aa(lp7522
I447
aI37
aa(lp7523
I448
aI37
aa(lp7524
I449
aI26
aa(lp7525
I450
aI26
aa(lp7526
I451
aI26
aa(lp7527
I452
aI26
aa(lp7528
I453
aI26
aa(lp7529
I454
aI15
aa(lp7530
I455
aI15
aa(lp7531
I456
aI15
aa(lp7532
I457
aI15
aa(lp7533
I458
aI15
aa(lp7534
I459
aI4
aa(lp7535
I470
aI3
aa(lp7536
I471
aI3
aa(lp7537
I472
aI14
aa(lp7538
I473
aI14
aa(lp7539
I474
aI13
aa(lp7540
I475
aI13
aa(lp7541
I476
aI24
aa(lp7542
I477
aI24
aa(lp7543
I478
aI35
aa(lp7544
I479
aI34
aa(lp7545
I480
aI34
aa(lp7546
I481
aI45
aa(lp7547
I482
aI45
aa(lp7548
I483
aI45
aa(lp7549
I484
aI44
aa(lp7550
I540
aI33
aa(lp7551
I541
aI33
aa(lp7552
I542
aI34
aa(lp7553
I543
aI34
aa(lp7554
I544
aI23
aa(lp7555
I545
aI23
aa(lp7556
I546
aI24
aa(lp7557
I547
aI24
aa(lp7558
I548
aI25
aa(lp7559
I549
aI14
aa(lp7560
I550
aI14
aa(lp7561
I551
aI15
aa(lp7562
I552
aI15
aa(lp7563
I553
aI15
aa(lp7564
I554
aI4
aatp7565
Rp7566
sI51
g71
((lp7567
(lp7568
I0
aI40
aa(lp7569
I1
aI40
aa(lp7570
I2
aI40
aa(lp7571
I3
aI40
aa(lp7572
I4
aI29
aa(lp7573
I5
aI29
aa(lp7574
I6
aI29
aa(lp7575
I7
aI30
aa(lp7576
I8
aI30
aa(lp7577
I9
aI19
aa(lp7578
I10
aI19
aa(lp7579
I11
aI19
aa(lp7580
I12
aI19
aa(lp7581
I13
aI19
aa(lp7582
I14
aI9
aa(lp7583
I70
aI9
aa(lp7584
I71
aI9
aa(lp7585
I72
aI9
aa(lp7586
I73
aI9
aa(lp7587
I74
aI9
aa(lp7588
I75
aI9
aa(lp7589
I76
aI9
aa(lp7590
I77
aI9
aa(lp7591
I78
aI9
aa(lp7592
I79
aI9
aa(lp7593
I80
aI9
aa(lp7594
I81
aI9
aa(lp7595
I82
aI9
aa(lp7596
I83
aI9
aa(lp7597
I84
aI9
aa(lp7598
I140
aI8
aa(lp7599
I141
aI7
aa(lp7600
I142
aI7
aa(lp7601
I143
aI6
aa(lp7602
I144
aI6
aa(lp7603
I145
aI5
aa(lp7604
I146
aI5
aa(lp7605
I147
aI4
aa(lp7606
I148
aI4
aa(lp7607
I149
aI3
aa(lp7608
I150
aI3
aa(lp7609
I151
aI2
aa(lp7610
I152
aI2
aa(lp7611
I153
aI1
aa(lp7612
I154
aI1
aa(lp7613
I165
aI1
aa(lp7614
I166
aI1
aa(lp7615
I167
aI1
aa(lp7616
I168
aI12
aa(lp7617
I169
aI12
aa(lp7618
I170
aI12
aa(lp7619
I171
aI12
aa(lp7620
I172
aI23
aa(lp7621
I173
aI23
aa(lp7622
I174
aI23
aa(lp7623
I175
aI23
aa(lp7624
I176
aI34
aa(lp7625
I177
aI34
aa(lp7626
I178
aI34
aa(lp7627
I179
aI34
aa(lp7628
I235
aI23
aa(lp7629
I236
aI23
aa(lp7630
I237
aI24
aa(lp7631
I238
aI24
aa(lp7632
I239
aI25
aa(lp7633
I240
aI25
aa(lp7634
I241
aI26
aa(lp7635
I242
aI15
aa(lp7636
I243
aI16
aa(lp7637
I244
aI16
aa(lp7638
I245
aI17
aa(lp7639
I246
aI17
aa(lp7640
I247
aI18
aa(lp7641
I248
aI18
aa(lp7642
I249
aI19
aa(lp7643
I305
aI18
aa(lp7644
I306
aI18
aa(lp7645
I307
aI17
aa(lp7646
I308
aI17
aa(lp7647
I309
aI16
aa(lp7648
I310
aI27
aa(lp7649
I311
aI27
aa(lp7650
I312
aI26
aa(lp7651
I313
aI26
aa(lp7652
I314
aI36
aa(lp7653
I315
aI36
aa(lp7654
I316
aI36
aa(lp7655
I317
aI35
aa(lp7656
I318
aI35
aa(lp7657
I319
aI45
aa(lp7658
I375
aI45
aa(lp7659
I376
aI46
aa(lp7660
I377
aI46
aa(lp7661
I378
aI47
aa(lp7662
I379
aI47
aa(lp7663
I380
aI48
aa(lp7664
I381
aI48
aa(lp7665
I382
aI49
aa(lp7666
I383
aI49
aa(lp7667
I384
aI50
aa(lp7668
I385
aI50
aa(lp7669
I386
aI51
aa(lp7670
I387
aI51
aa(lp7671
I388
aI52
aa(lp7672
I389
aI52
aa(lp7673
I445
aI41
aa(lp7674
I446
aI41
aa(lp7675
I447
aI41
aa(lp7676
I448
aI41
aa(lp7677
I449
aI30
aa(lp7678
I450
aI30
aa(lp7679
I451
aI30
aa(lp7680
I452
aI30
aa(lp7681
I453
aI30
aa(lp7682
I454
aI19
aa(lp7683
I455
aI19
aa(lp7684
I456
aI19
aa(lp7685
I457
aI19
aa(lp7686
I458
aI19
aa(lp7687
I459
aI8
aa(lp7688
I470
aI7
aa(lp7689
I471
aI7
aa(lp7690
I472
aI6
aa(lp7691
I473
aI17
aa(lp7692
I474
aI16
aa(lp7693
I475
aI16
aa(lp7694
I476
aI16
aa(lp7695
I477
aI26
aa(lp7696
I478
aI26
aa(lp7697
I479
aI25
aa(lp7698
I480
aI25
aa(lp7699
I481
aI36
aa(lp7700
I482
aI35
aa(lp7701
I483
aI35
aa(lp7702
I484
aI34
aa(lp7703
I540
aI34
aa(lp7704
I541
aI34
aa(lp7705
I542
aI34
aa(lp7706
I543
aI34
aa(lp7707
I544
aI34
aa(lp7708
I545
aI34
aa(lp7709
I546
aI34
aa(lp7710
I547
aI34
aa(lp7711
I548
aI34
aa(lp7712
I549
aI34
aa(lp7713
I550
aI34
aa(lp7714
I551
aI34
aa(lp7715
I552
aI34
aa(lp7716
I553
aI34
aa(lp7717
I554
aI34
aatp7718
Rp7719
sI52
g71
((lp7720
(lp7721
I0
aI40
aa(lp7722
I1
aI40
aa(lp7723
I2
aI40
aa(lp7724
I3
aI40
aa(lp7725
I4
aI29
aa(lp7726
I5
aI29
aa(lp7727
I6
aI29
aa(lp7728
I7
aI29
aa(lp7729
I8
aI29
aa(lp7730
I9
aI18
aa(lp7731
I10
aI18
aa(lp7732
I11
aI18
aa(lp7733
I12
aI18
aa(lp7734
I13
aI18
aa(lp7735
I14
aI7
aa(lp7736
I70
aI7
aa(lp7737
I71
aI7
aa(lp7738
I72
aI7
aa(lp7739
I73
aI7
aa(lp7740
I74
aI7
aa(lp7741
I75
aI7
aa(lp7742
I76
aI7
aa(lp7743
I77
aI7
aa(lp7744
I78
aI7
aa(lp7745
I79
aI7
aa(lp7746
I80
aI7
aa(lp7747
I81
aI7
aa(lp7748
I82
aI7
aa(lp7749
I83
aI7
aa(lp7750
I84
aI7
aa(lp7751
I140
aI6
aa(lp7752
I141
aI6
aa(lp7753
I142
aI6
aa(lp7754
I143
aI6
aa(lp7755
I144
aI5
aa(lp7756
I145
aI5
aa(lp7757
I146
aI5
aa(lp7758
I147
aI16
aa(lp7759
I148
aI16
aa(lp7760
I149
aI15
aa(lp7761
I150
aI15
aa(lp7762
I151
aI15
aa(lp7763
I152
aI15
aa(lp7764
I153
aI15
aa(lp7765
I154
aI14
aa(lp7766
I165
aI13
aa(lp7767
I166
aI13
aa(lp7768
I167
aI13
aa(lp7769
I168
aI13
aa(lp7770
I169
aI13
aa(lp7771
I170
aI24
aa(lp7772
I171
aI24
aa(lp7773
I172
aI23
aa(lp7774
I173
aI23
aa(lp7775
I174
aI34
aa(lp7776
I175
aI34
aa(lp7777
I176
aI34
aa(lp7778
I177
aI34
aa(lp7779
I178
aI34
aa(lp7780
I179
aI45
aa(lp7781
I235
aI34
aa(lp7782
I236
aI34
aa(lp7783
I237
aI35
aa(lp7784
I238
aI35
aa(lp7785
I239
aI25
aa(lp7786
I240
aI25
aa(lp7787
I241
aI26
aa(lp7788
I242
aI26
aa(lp7789
I243
aI27
aa(lp7790
I244
aI16
aa(lp7791
I245
aI17
aa(lp7792
I246
aI17
aa(lp7793
I247
aI18
aa(lp7794
I248
aI18
aa(lp7795
I249
aI8
aa(lp7796
I305
aI7
aa(lp7797
I306
aI7
aa(lp7798
I307
aI6
aa(lp7799
I308
aI17
aa(lp7800
I309
aI16
aa(lp7801
I310
aI16
aa(lp7802
I311
aI15
aa(lp7803
I312
aI26
aa(lp7804
I313
aI25
aa(lp7805
I314
aI25
aa(lp7806
I315
aI24
aa(lp7807
I316
aI35
aa(lp7808
I317
aI34
aa(lp7809
I318
aI34
aa(lp7810
I319
aI33
aa(lp7811
I375
aI33
aa(lp7812
I376
aI34
aa(lp7813
I377
aI34
aa(lp7814
I378
aI35
aa(lp7815
I379
aI36
aa(lp7816
I380
aI36
aa(lp7817
I381
aI37
aa(lp7818
I382
aI37
aa(lp7819
I383
aI38
aa(lp7820
I384
aI38
aa(lp7821
I385
aI39
aa(lp7822
I386
aI40
aa(lp7823
I387
aI40
aa(lp7824
I388
aI41
aa(lp7825
I389
aI52
aa(lp7826
I445
aI40
aa(lp7827
I446
aI40
aa(lp7828
I447
aI40
aa(lp7829
I448
aI39
aa(lp7830
I449
aI28
aa(lp7831
I450
aI28
aa(lp7832
I451
aI28
aa(lp7833
I452
aI27
aa(lp7834
I453
aI27
aa(lp7835
I454
aI16
aa(lp7836
I455
aI16
aa(lp7837
I456
aI15
aa(lp7838
I457
aI15
aa(lp7839
I458
aI15
aa(lp7840
I459
aI4
aa(lp7841
I470
aI3
aa(lp7842
I471
aI3
aa(lp7843
I472
aI3
aa(lp7844
I473
aI14
aa(lp7845
I474
aI13
aa(lp7846
I475
aI13
aa(lp7847
I476
aI13
aa(lp7848
I477
aI24
aa(lp7849
I478
aI24
aa(lp7850
I479
aI23
aa(lp7851
I480
aI23
aa(lp7852
I481
aI34
aa(lp7853
I482
aI34
aa(lp7854
I483
aI34
aa(lp7855
I484
aI33
aa(lp7856
I540
aI33
aa(lp7857
I541
aI34
aa(lp7858
I542
aI35
aa(lp7859
I543
aI35
aa(lp7860
I544
aI36
aa(lp7861
I545
aI36
aa(lp7862
I546
aI37
aa(lp7863
I547
aI38
aa(lp7864
I548
aI39
aa(lp7865
I549
aI39
aa(lp7866
I550
aI40
aa(lp7867
I551
aI41
aa(lp7868
I552
aI41
aa(lp7869
I553
aI42
aa(lp7870
I554
aI53
aatp7871
Rp7872
sI53
g71
((lp7873
(lp7874
I0
aI41
aa(lp7875
I1
aI41
aa(lp7876
I2
aI41
aa(lp7877
I3
aI41
aa(lp7878
I4
aI30
aa(lp7879
I5
aI30
aa(lp7880
I6
aI30
aa(lp7881
I7
aI29
aa(lp7882
I8
aI29
aa(lp7883
I9
aI18
aa(lp7884
I10
aI18
aa(lp7885
I11
aI18
aa(lp7886
I12
aI18
aa(lp7887
I13
aI18
aa(lp7888
I14
aI7
aa(lp7889
I70
aI7
aa(lp7890
I71
aI7
aa(lp7891
I72
aI7
aa(lp7892
I73
aI7
aa(lp7893
I74
aI7
aa(lp7894
I75
aI7
aa(lp7895
I76
aI7
aa(lp7896
I77
aI7
aa(lp7897
I78
aI7
aa(lp7898
I79
aI7
aa(lp7899
I80
aI7
aa(lp7900
I81
aI7
aa(lp7901
I82
aI7
aa(lp7902
I83
aI7
aa(lp7903
I84
aI7
aa(lp7904
I140
aI6
aa(lp7905
I141
aI6
aa(lp7906
I142
aI6
aa(lp7907
I143
aI6
aa(lp7908
I144
aI5
aa(lp7909
I145
aI5
aa(lp7910
I146
aI5
aa(lp7911
I147
aI16
aa(lp7912
I148
aI16
aa(lp7913
I149
aI15
aa(lp7914
I150
aI15
aa(lp7915
I151
aI15
aa(lp7916
I152
aI15
aa(lp7917
I153
aI15
aa(lp7918
I154
aI14
aa(lp7919
I165
aI13
aa(lp7920
I166
aI13
aa(lp7921
I167
aI13
aa(lp7922
I168
aI24
aa(lp7923
I169
aI24
aa(lp7924
I170
aI24
aa(lp7925
I171
aI24
aa(lp7926
I172
aI34
aa(lp7927
I173
aI34
aa(lp7928
I174
aI34
aa(lp7929
I175
aI34
aa(lp7930
I176
aI45
aa(lp7931
I177
aI45
aa(lp7932
I178
aI45
aa(lp7933
I179
aI45
aa(lp7934
I235
aI34
aa(lp7935
I236
aI34
aa(lp7936
I237
aI34
aa(lp7937
I238
aI34
aa(lp7938
I239
aI23
aa(lp7939
I240
aI23
aa(lp7940
I241
aI23
aa(lp7941
I242
aI23
aa(lp7942
I243
aI23
aa(lp7943
I244
aI12
aa(lp7944
I245
aI12
aa(lp7945
I246
aI12
aa(lp7946
I247
aI12
aa(lp7947
I248
aI12
aa(lp7948
I249
aI1
aa(lp7949
I305
aI1
aa(lp7950
I306
aI1
aa(lp7951
I307
aI12
aa(lp7952
I308
aI12
aa(lp7953
I309
aI12
aa(lp7954
I310
aI12
aa(lp7955
I311
aI23
aa(lp7956
I312
aI23
aa(lp7957
I313
aI34
aa(lp7958
I314
aI34
aa(lp7959
I315
aI34
aa(lp7960
I316
aI45
aa(lp7961
I317
aI45
aa(lp7962
I318
aI45
aa(lp7963
I319
aI45
aa(lp7964
I375
aI45
aa(lp7965
I376
aI45
aa(lp7966
I377
aI45
aa(lp7967
I378
aI46
aa(lp7968
I379
aI46
aa(lp7969
I380
aI47
aa(lp7970
I381
aI47
aa(lp7971
I382
aI47
aa(lp7972
I383
aI48
aa(lp7973
I384
aI48
aa(lp7974
I385
aI48
aa(lp7975
I386
aI48
aa(lp7976
I387
aI49
aa(lp7977
I388
aI49
aa(lp7978
I389
aI49
aa(lp7979
I445
aI37
aa(lp7980
I446
aI37
aa(lp7981
I447
aI37
aa(lp7982
I448
aI37
aa(lp7983
I449
aI26
aa(lp7984
I450
aI26
aa(lp7985
I451
aI26
aa(lp7986
I452
aI26
aa(lp7987
I453
aI26
aa(lp7988
I454
aI15
aa(lp7989
I455
aI15
aa(lp7990
I456
aI15
aa(lp7991
I457
aI15
aa(lp7992
I458
aI15
aa(lp7993
I459
aI4
aa(lp7994
I470
aI3
aa(lp7995
I471
aI3
aa(lp7996
I472
aI14
aa(lp7997
I473
aI14
aa(lp7998
I474
aI13
aa(lp7999
I475
aI13
aa(lp8000
I476
aI24
aa(lp8001
I477
aI24
aa(lp8002
I478
aI35
aa(lp8003
I479
aI34
aa(lp8004
I480
aI34
aa(lp8005
I481
aI45
aa(lp8006
I482
aI45
aa(lp8007
I483
aI45
aa(lp8008
I484
aI44
aa(lp8009
I540
aI33
aa(lp8010
I541
aI33
aa(lp8011
I542
aI33
aa(lp8012
I543
aI33
aa(lp8013
I544
aI33
aa(lp8014
I545
aI33
aa(lp8015
I546
aI33
aa(lp8016
I547
aI34
aa(lp8017
I548
aI34
aa(lp8018
I549
aI34
aa(lp8019
I550
aI34
aa(lp8020
I551
aI34
aa(lp8021
I552
aI34
aa(lp8022
I553
aI34
aa(lp8023
I554
aI23
aatp8024
Rp8025
sI54
g71
((lp8026
(lp8027
I0
aI43
aa(lp8028
I1
aI43
aa(lp8029
I2
aI43
aa(lp8030
I3
aI43
aa(lp8031
I4
aI32
aa(lp8032
I5
aI32
aa(lp8033
I6
aI32
aa(lp8034
I7
aI32
aa(lp8035
I8
aI32
aa(lp8036
I9
aI21
aa(lp8037
I10
aI21
aa(lp8038
I11
aI21
aa(lp8039
I12
aI21
aa(lp8040
I13
aI21
aa(lp8041
I14
aI10
aa(lp8042
I70
aI10
aa(lp8043
I71
aI10
aa(lp8044
I72
aI10
aa(lp8045
I73
aI10
aa(lp8046
I74
aI10
aa(lp8047
I75
aI10
aa(lp8048
I76
aI10
aa(lp8049
I77
aI10
aa(lp8050
I78
aI10
aa(lp8051
I79
aI10
aa(lp8052
I80
aI10
aa(lp8053
I81
aI10
aa(lp8054
I82
aI10
aa(lp8055
I83
aI10
aa(lp8056
I84
aI10
aa(lp8057
I140
aI9
aa(lp8058
I141
aI9
aa(lp8059
I142
aI19
aa(lp8060
I143
aI19
aa(lp8061
I144
aI18
aa(lp8062
I145
aI18
aa(lp8063
I146
aI28
aa(lp8064
I147
aI28
aa(lp8065
I148
aI38
aa(lp8066
I149
aI38
aa(lp8067
I150
aI37
aa(lp8068
I151
aI48
aa(lp8069
I152
aI47
aa(lp8070
I153
aI47
aa(lp8071
I154
aI46
aa(lp8072
I165
aI45
aa(lp8073
I166
aI45
aa(lp8074
I167
aI45
aa(lp8075
I168
aI45
aa(lp8076
I169
aI45
aa(lp8077
I170
aI45
aa(lp8078
I171
aI45
aa(lp8079
I172
aI45
aa(lp8080
I173
aI45
aa(lp8081
I174
aI45
aa(lp8082
I175
aI45
aa(lp8083
I176
aI45
aa(lp8084
I177
aI45
aa(lp8085
I178
aI45
aa(lp8086
I179
aI45
aa(lp8087
I235
aI34
aa(lp8088
I236
aI34
aa(lp8089
I237
aI34
aa(lp8090
I238
aI34
aa(lp8091
I239
aI23
aa(lp8092
I240
aI23
aa(lp8093
I241
aI23
aa(lp8094
I242
aI23
aa(lp8095
I243
aI23
aa(lp8096
I244
aI12
aa(lp8097
I245
aI12
aa(lp8098
I246
aI12
aa(lp8099
I247
aI12
aa(lp8100
I248
aI12
aa(lp8101
I249
aI1
aa(lp8102
I305
aI1
aa(lp8103
I306
aI1
aa(lp8104
I307
aI1
aa(lp8105
I308
aI12
aa(lp8106
I309
aI12
aa(lp8107
I310
aI12
aa(lp8108
I311
aI12
aa(lp8109
I312
aI23
aa(lp8110
I313
aI23
aa(lp8111
I314
aI23
aa(lp8112
I315
aI23
aa(lp8113
I316
aI34
aa(lp8114
I317
aI34
aa(lp8115
I318
aI34
aa(lp8116
I319
aI34
aa(lp8117
I375
aI23
aa(lp8118
I376
aI24
aa(lp8119
I377
aI24
aa(lp8120
I378
aI25
aa(lp8121
I379
aI25
aa(lp8122
I380
aI26
aa(lp8123
I381
aI26
aa(lp8124
I382
aI16
aa(lp8125
I383
aI16
aa(lp8126
I384
aI17
aa(lp8127
I385
aI17
aa(lp8128
I386
aI18
aa(lp8129
I387
aI18
aa(lp8130
I388
aI19
aa(lp8131
I389
aI19
aa(lp8132
I445
aI18
aa(lp8133
I446
aI18
aa(lp8134
I447
aI18
aa(lp8135
I448
aI17
aa(lp8136
I449
aI17
aa(lp8137
I450
aI17
aa(lp8138
I451
aI17
aa(lp8139
I452
aI16
aa(lp8140
I453
aI16
aa(lp8141
I454
aI16
aa(lp8142
I455
aI16
aa(lp8143
I456
aI15
aa(lp8144
I457
aI15
aa(lp8145
I458
aI15
aa(lp8146
I459
aI15
aa(lp8147
I470
aI14
aa(lp8148
I471
aI14
aa(lp8149
I472
aI14
aa(lp8150
I473
aI14
aa(lp8151
I474
aI13
aa(lp8152
I475
aI24
aa(lp8153
I476
aI24
aa(lp8154
I477
aI24
aa(lp8155
I478
aI24
aa(lp8156
I479
aI34
aa(lp8157
I480
aI34
aa(lp8158
I481
aI34
aa(lp8159
I482
aI34
aa(lp8160
I483
aI34
aa(lp8161
I484
aI44
aa(lp8162
I540
aI33
aa(lp8163
I541
aI33
aa(lp8164
I542
aI33
aa(lp8165
I543
aI33
aa(lp8166
I544
aI33
aa(lp8167
I545
aI33
aa(lp8168
I546
aI33
aa(lp8169
I547
aI34
aa(lp8170
I548
aI34
aa(lp8171
I549
aI34
aa(lp8172
I550
aI34
aa(lp8173
I551
aI34
aa(lp8174
I552
aI34
aa(lp8175
I553
aI34
aa(lp8176
I554
aI23
aatp8177
Rp8178
sI55
g71
((lp8179
(lp8180
I0
aI44
aa(lp8181
I1
aI44
aa(lp8182
I2
aI45
aa(lp8183
I3
aI34
aa(lp8184
I4
aI35
aa(lp8185
I5
aI35
aa(lp8186
I6
aI36
aa(lp8187
I7
aI25
aa(lp8188
I8
aI26
aa(lp8189
I9
aI26
aa(lp8190
I10
aI27
aa(lp8191
I11
aI16
aa(lp8192
I12
aI17
aa(lp8193
I13
aI17
aa(lp8194
I14
aI18
aa(lp8195
I84
aI18
aa(lp8196
I140
aI17
aa(lp8197
I141
aI17
aa(lp8198
I142
aI16
aa(lp8199
I143
aI16
aa(lp8200
I144
aI15
aa(lp8201
I145
aI15
aa(lp8202
I146
aI15
aa(lp8203
I147
aI14
aa(lp8204
I148
aI14
aa(lp8205
I149
aI13
aa(lp8206
I150
aI13
aa(lp8207
I151
aI13
aa(lp8208
I152
aI12
aa(lp8209
I153
aI12
aa(lp8210
I154
aI11
aa(lp8211
I165
aI11
aa(lp8212
I166
aI11
aa(lp8213
I167
aI12
aa(lp8214
I168
aI12
aa(lp8215
I169
aI13
aa(lp8216
I170
aI24
aa(lp8217
I171
aI25
aa(lp8218
I172
aI25
aa(lp8219
I173
aI26
aa(lp8220
I174
aI37
aa(lp8221
I175
aI38
aa(lp8222
I176
aI38
aa(lp8223
I177
aI39
aa(lp8224
I178
aI39
aa(lp8225
I179
aI51
aa(lp8226
I235
aI40
aa(lp8227
I236
aI40
aa(lp8228
I237
aI40
aa(lp8229
I238
aI40
aa(lp8230
I239
aI29
aa(lp8231
I240
aI29
aa(lp8232
I241
aI29
aa(lp8233
I242
aI29
aa(lp8234
I243
aI29
aa(lp8235
I244
aI18
aa(lp8236
I245
aI18
aa(lp8237
I246
aI18
aa(lp8238
I247
aI18
aa(lp8239
I248
aI18
aa(lp8240
I249
aI7
aa(lp8241
I305
aI7
aa(lp8242
I306
aI7
aa(lp8243
I307
aI7
aa(lp8244
I308
aI18
aa(lp8245
I309
aI18
aa(lp8246
I310
aI18
aa(lp8247
I311
aI18
aa(lp8248
I312
aI29
aa(lp8249
I313
aI29
aa(lp8250
I314
aI29
aa(lp8251
I315
aI29
aa(lp8252
I316
aI40
aa(lp8253
I317
aI40
aa(lp8254
I318
aI40
aa(lp8255
I319
aI40
aa(lp8256
I375
aI39
aa(lp8257
I376
aI39
aa(lp8258
I377
aI39
aa(lp8259
I378
aI39
aa(lp8260
I379
aI39
aa(lp8261
I380
aI39
aa(lp8262
I381
aI39
aa(lp8263
I382
aI39
aa(lp8264
I383
aI39
aa(lp8265
I384
aI39
aa(lp8266
I385
aI39
aa(lp8267
I386
aI39
aa(lp8268
I387
aI39
aa(lp8269
I388
aI39
aa(lp8270
I389
aI50
aa(lp8271
I445
aI39
aa(lp8272
I446
aI39
aa(lp8273
I447
aI39
aa(lp8274
I448
aI39
aa(lp8275
I449
aI28
aa(lp8276
I450
aI28
aa(lp8277
I451
aI28
aa(lp8278
I452
aI29
aa(lp8279
I453
aI29
aa(lp8280
I454
aI18
aa(lp8281
I455
aI18
aa(lp8282
I456
aI18
aa(lp8283
I457
aI18
aa(lp8284
I458
aI18
aa(lp8285
I459
aI8
aa(lp8286
I470
aI7
aa(lp8287
I471
aI7
aa(lp8288
I472
aI7
aa(lp8289
I473
aI18
aa(lp8290
I474
aI18
aa(lp8291
I475
aI18
aa(lp8292
I476
aI18
aa(lp8293
I477
aI29
aa(lp8294
I478
aI29
aa(lp8295
I479
aI29
aa(lp8296
I480
aI29
aa(lp8297
I481
aI40
aa(lp8298
I482
aI40
aa(lp8299
I483
aI40
aa(lp8300
I484
aI40
aa(lp8301
I540
aI28
aa(lp8302
I541
aI28
aa(lp8303
I542
aI28
aa(lp8304
I543
aI28
aa(lp8305
I544
aI28
aa(lp8306
I545
aI28
aa(lp8307
I546
aI28
aa(lp8308
I547
aI16
aa(lp8309
I548
aI16
aa(lp8310
I549
aI16
aa(lp8311
I550
aI16
aa(lp8312
I551
aI16
aa(lp8313
I552
aI16
aa(lp8314
I553
aI16
aa(lp8315
I554
aI15
aatp8316
Rp8317
sI56
g71
((lp8318
(lp8319
I0
aI45
aa(lp8320
I1
aI45
aa(lp8321
I2
aI46
aa(lp8322
I3
aI35
aa(lp8323
I4
aI35
aa(lp8324
I5
aI36
aa(lp8325
I6
aI36
aa(lp8326
I7
aI26
aa(lp8327
I8
aI26
aa(lp8328
I9
aI27
aa(lp8329
I10
aI27
aa(lp8330
I11
aI16
aa(lp8331
I12
aI17
aa(lp8332
I13
aI17
aa(lp8333
I14
aI18
aa(lp8334
I84
aI18
aa(lp8335
I140
aI17
aa(lp8336
I141
aI17
aa(lp8337
I142
aI16
aa(lp8338
I143
aI16
aa(lp8339
I144
aI15
aa(lp8340
I145
aI15
aa(lp8341
I146
aI15
aa(lp8342
I147
aI14
aa(lp8343
I148
aI14
aa(lp8344
I149
aI13
aa(lp8345
I150
aI13
aa(lp8346
I151
aI13
aa(lp8347
I152
aI12
aa(lp8348
I153
aI12
aa(lp8349
I154
aI11
aa(lp8350
I165
aI11
aa(lp8351
I166
aI11
aa(lp8352
I167
aI11
aa(lp8353
I168
aI11
aa(lp8354
I169
aI11
aa(lp8355
I170
aI22
aa(lp8356
I171
aI22
aa(lp8357
I172
aI23
aa(lp8358
I173
aI23
aa(lp8359
I174
aI34
aa(lp8360
I175
aI34
aa(lp8361
I176
aI34
aa(lp8362
I177
aI34
aa(lp8363
I178
aI34
aa(lp8364
I179
aI45
aa(lp8365
I235
aI34
aa(lp8366
I236
aI34
aa(lp8367
I237
aI35
aa(lp8368
I238
aI35
aa(lp8369
I239
aI25
aa(lp8370
I240
aI25
aa(lp8371
I241
aI26
aa(lp8372
I242
aI26
aa(lp8373
I243
aI27
aa(lp8374
I244
aI16
aa(lp8375
I245
aI17
aa(lp8376
I246
aI17
aa(lp8377
I247
aI18
aa(lp8378
I248
aI18
aa(lp8379
I249
aI8
aa(lp8380
I305
aI7
aa(lp8381
I306
aI7
aa(lp8382
I307
aI6
aa(lp8383
I308
aI17
aa(lp8384
I309
aI16
aa(lp8385
I310
aI16
aa(lp8386
I311
aI16
aa(lp8387
I312
aI26
aa(lp8388
I313
aI26
aa(lp8389
I314
aI25
aa(lp8390
I315
aI25
aa(lp8391
I316
aI36
aa(lp8392
I317
aI35
aa(lp8393
I318
aI35
aa(lp8394
I319
aI34
aa(lp8395
I375
aI23
aa(lp8396
I376
aI24
aa(lp8397
I377
aI24
aa(lp8398
I378
aI25
aa(lp8399
I379
aI25
aa(lp8400
I380
aI26
aa(lp8401
I381
aI26
aa(lp8402
I382
aI16
aa(lp8403
I383
aI16
aa(lp8404
I384
aI17
aa(lp8405
I385
aI17
aa(lp8406
I386
aI18
aa(lp8407
I387
aI18
aa(lp8408
I388
aI19
aa(lp8409
I389
aI19
aa(lp8410
I445
aI18
aa(lp8411
I446
aI18
aa(lp8412
I447
aI18
aa(lp8413
I448
aI17
aa(lp8414
I449
aI17
aa(lp8415
I450
aI17
aa(lp8416
I451
aI17
aa(lp8417
I452
aI16
aa(lp8418
I453
aI16
aa(lp8419
I454
aI16
aa(lp8420
I455
aI16
aa(lp8421
I456
aI15
aa(lp8422
I457
aI15
aa(lp8423
I458
aI15
aa(lp8424
I459
aI15
aa(lp8425
I470
aI14
aa(lp8426
I471
aI14
aa(lp8427
I472
aI14
aa(lp8428
I473
aI14
aa(lp8429
I474
aI14
aa(lp8430
I475
aI25
aa(lp8431
I476
aI25
aa(lp8432
I477
aI24
aa(lp8433
I478
aI24
aa(lp8434
I479
aI35
aa(lp8435
I480
aI35
aa(lp8436
I481
aI35
aa(lp8437
I482
aI35
aa(lp8438
I483
aI35
aa(lp8439
I484
aI46
aa(lp8440
I540
aI35
aa(lp8441
I541
aI35
aa(lp8442
I542
aI35
aa(lp8443
I543
aI35
aa(lp8444
I544
aI25
aa(lp8445
I545
aI25
aa(lp8446
I546
aI25
aa(lp8447
I547
aI25
aa(lp8448
I548
aI25
aa(lp8449
I549
aI15
aa(lp8450
I550
aI15
aa(lp8451
I551
aI15
aa(lp8452
I552
aI15
aa(lp8453
I553
aI15
aa(lp8454
I554
aI5
aatp8455
Rp8456
sI57
g71
((lp8457
(lp8458
I0
aI46
aa(lp8459
I1
aI46
aa(lp8460
I2
aI47
aa(lp8461
I3
aI36
aa(lp8462
I4
aI36
aa(lp8463
I5
aI37
aa(lp8464
I6
aI37
aa(lp8465
I7
aI26
aa(lp8466
I8
aI27
aa(lp8467
I9
aI27
aa(lp8468
I10
aI27
aa(lp8469
I11
aI16
aa(lp8470
I12
aI17
aa(lp8471
I13
aI17
aa(lp8472
I14
aI17
aa(lp8473
I70
aI17
aa(lp8474
I71
aI17
aa(lp8475
I72
aI17
aa(lp8476
I73
aI17
aa(lp8477
I74
aI17
aa(lp8478
I75
aI17
aa(lp8479
I76
aI17
aa(lp8480
I77
aI17
aa(lp8481
I78
aI17
aa(lp8482
I79
aI17
aa(lp8483
I80
aI17
aa(lp8484
I81
aI17
aa(lp8485
I82
aI17
aa(lp8486
I83
aI17
aa(lp8487
I84
aI17
aa(lp8488
I140
aI16
aa(lp8489
I141
aI16
aa(lp8490
I142
aI16
aa(lp8491
I143
aI16
aa(lp8492
I144
aI16
aa(lp8493
I145
aI16
aa(lp8494
I146
aI16
aa(lp8495
I147
aI15
aa(lp8496
I148
aI15
aa(lp8497
I149
aI15
aa(lp8498
I150
aI15
aa(lp8499
I151
aI15
aa(lp8500
I152
aI15
aa(lp8501
I153
aI15
aa(lp8502
I154
aI14
aa(lp8503
I165
aI13
aa(lp8504
I166
aI13
aa(lp8505
I167
aI13
aa(lp8506
I168
aI13
aa(lp8507
I169
aI13
aa(lp8508
I170
aI24
aa(lp8509
I171
aI24
aa(lp8510
I172
aI23
aa(lp8511
I173
aI23
aa(lp8512
I174
aI34
aa(lp8513
I175
aI34
aa(lp8514
I176
aI34
aa(lp8515
I177
aI34
aa(lp8516
I178
aI34
aa(lp8517
I179
aI45
aa(lp8518
I235
aI34
aa(lp8519
I236
aI34
aa(lp8520
I237
aI34
aa(lp8521
I238
aI34
aa(lp8522
I239
aI23
aa(lp8523
I240
aI23
aa(lp8524
I241
aI23
aa(lp8525
I242
aI23
aa(lp8526
I243
aI23
aa(lp8527
I244
aI12
aa(lp8528
I245
aI12
aa(lp8529
I246
aI12
aa(lp8530
I247
aI12
aa(lp8531
I248
aI12
aa(lp8532
I249
aI1
aa(lp8533
I305
aI1
aa(lp8534
I306
aI1
aa(lp8535
I307
aI1
aa(lp8536
I308
aI12
aa(lp8537
I309
aI12
aa(lp8538
I310
aI12
aa(lp8539
I311
aI12
aa(lp8540
I312
aI23
aa(lp8541
I313
aI23
aa(lp8542
I314
aI23
aa(lp8543
I315
aI23
aa(lp8544
I316
aI34
aa(lp8545
I317
aI34
aa(lp8546
I318
aI34
aa(lp8547
I319
aI34
aa(lp8548
I375
aI34
aa(lp8549
I376
aI35
aa(lp8550
I377
aI35
aa(lp8551
I378
aI36
aa(lp8552
I379
aI36
aa(lp8553
I380
aI37
aa(lp8554
I381
aI37
aa(lp8555
I382
aI38
aa(lp8556
I383
aI38
aa(lp8557
I384
aI39
aa(lp8558
I385
aI39
aa(lp8559
I386
aI40
aa(lp8560
I387
aI40
aa(lp8561
I388
aI41
aa(lp8562
I389
aI52
aa(lp8563
I445
aI40
aa(lp8564
I446
aI40
aa(lp8565
I447
aI40
aa(lp8566
I448
aI39
aa(lp8567
I449
aI28
aa(lp8568
I450
aI28
aa(lp8569
I451
aI28
aa(lp8570
I452
aI27
aa(lp8571
I453
aI27
aa(lp8572
I454
aI16
aa(lp8573
I455
aI16
aa(lp8574
I456
aI15
aa(lp8575
I457
aI15
aa(lp8576
I458
aI15
aa(lp8577
I459
aI4
aa(lp8578
I470
aI3
aa(lp8579
I471
aI3
aa(lp8580
I472
aI3
aa(lp8581
I473
aI14
aa(lp8582
I474
aI13
aa(lp8583
I475
aI13
aa(lp8584
I476
aI13
aa(lp8585
I477
aI24
aa(lp8586
I478
aI24
aa(lp8587
I479
aI23
aa(lp8588
I480
aI23
aa(lp8589
I481
aI34
aa(lp8590
I482
aI34
aa(lp8591
I483
aI34
aa(lp8592
I484
aI33
aa(lp8593
I540
aI33
aa(lp8594
I541
aI33
aa(lp8595
I542
aI33
aa(lp8596
I543
aI33
aa(lp8597
I544
aI33
aa(lp8598
I545
aI33
aa(lp8599
I546
aI33
aa(lp8600
I547
aI34
aa(lp8601
I548
aI34
aa(lp8602
I549
aI34
aa(lp8603
I550
aI34
aa(lp8604
I551
aI34
aa(lp8605
I552
aI34
aa(lp8606
I553
aI34
aa(lp8607
I554
aI34
aatp8608
Rp8609
sI58
g71
((lp8610
(lp8611
I0
aI47
aa(lp8612
I1
aI47
aa(lp8613
I2
aI48
aa(lp8614
I3
aI37
aa(lp8615
I4
aI38
aa(lp8616
I5
aI38
aa(lp8617
I6
aI38
aa(lp8618
I7
aI28
aa(lp8619
I8
aI28
aa(lp8620
I9
aI29
aa(lp8621
I10
aI29
aa(lp8622
I11
aI18
aa(lp8623
I12
aI19
aa(lp8624
I13
aI19
aa(lp8625
I14
aI20
aa(lp8626
I84
aI20
aa(lp8627
I140
aI19
aa(lp8628
I141
aI18
aa(lp8629
I142
aI18
aa(lp8630
I143
aI17
aa(lp8631
I144
aI17
aa(lp8632
I145
aI16
aa(lp8633
I146
aI16
aa(lp8634
I147
aI15
aa(lp8635
I148
aI15
aa(lp8636
I149
aI14
aa(lp8637
I150
aI14
aa(lp8638
I151
aI13
aa(lp8639
I152
aI13
aa(lp8640
I153
aI12
aa(lp8641
I154
aI12
aa(lp8642
I165
aI12
aa(lp8643
I166
aI12
aa(lp8644
I167
aI12
aa(lp8645
I168
aI23
aa(lp8646
I169
aI23
aa(lp8647
I170
aI23
aa(lp8648
I171
aI23
aa(lp8649
I172
aI34
aa(lp8650
I173
aI34
aa(lp8651
I174
aI34
aa(lp8652
I175
aI34
aa(lp8653
I176
aI45
aa(lp8654
I177
aI45
aa(lp8655
I178
aI45
aa(lp8656
I179
aI45
aa(lp8657
I235
aI34
aa(lp8658
I236
aI34
aa(lp8659
I237
aI35
aa(lp8660
I238
aI35
aa(lp8661
I239
aI25
aa(lp8662
I240
aI25
aa(lp8663
I241
aI26
aa(lp8664
I242
aI26
aa(lp8665
I243
aI27
aa(lp8666
I244
aI16
aa(lp8667
I245
aI17
aa(lp8668
I246
aI17
aa(lp8669
I247
aI18
aa(lp8670
I248
aI18
aa(lp8671
I249
aI8
aa(lp8672
I305
aI7
aa(lp8673
I306
aI7
aa(lp8674
I307
aI17
aa(lp8675
I308
aI17
aa(lp8676
I309
aI16
aa(lp8677
I310
aI16
aa(lp8678
I311
aI26
aa(lp8679
I312
aI26
aa(lp8680
I313
aI36
aa(lp8681
I314
aI36
aa(lp8682
I315
aI35
aa(lp8683
I316
aI46
aa(lp8684
I317
aI45
aa(lp8685
I318
aI45
aa(lp8686
I319
aI44
aa(lp8687
I375
aI44
aa(lp8688
I376
aI45
aa(lp8689
I377
aI45
aa(lp8690
I378
aI46
aa(lp8691
I379
aI47
aa(lp8692
I380
aI47
aa(lp8693
I381
aI48
aa(lp8694
I382
aI48
aa(lp8695
I383
aI49
aa(lp8696
I384
aI49
aa(lp8697
I385
aI50
aa(lp8698
I386
aI51
aa(lp8699
I387
aI51
aa(lp8700
I388
aI52
aa(lp8701
I389
aI52
aa(lp8702
I445
aI40
aa(lp8703
I446
aI40
aa(lp8704
I447
aI40
aa(lp8705
I448
aI39
aa(lp8706
I449
aI28
aa(lp8707
I450
aI28
aa(lp8708
I451
aI28
aa(lp8709
I452
aI27
aa(lp8710
I453
aI27
aa(lp8711
I454
aI16
aa(lp8712
I455
aI16
aa(lp8713
I456
aI15
aa(lp8714
I457
aI15
aa(lp8715
I458
aI15
aa(lp8716
I459
aI4
aa(lp8717
I470
aI3
aa(lp8718
I471
aI3
aa(lp8719
I472
aI14
aa(lp8720
I473
aI14
aa(lp8721
I474
aI13
aa(lp8722
I475
aI13
aa(lp8723
I476
aI24
aa(lp8724
I477
aI24
aa(lp8725
I478
aI35
aa(lp8726
I479
aI34
aa(lp8727
I480
aI34
aa(lp8728
I481
aI45
aa(lp8729
I482
aI45
aa(lp8730
I483
aI45
aa(lp8731
I484
aI44
aa(lp8732
I540
aI33
aa(lp8733
I541
aI33
aa(lp8734
I542
aI33
aa(lp8735
I543
aI33
aa(lp8736
I544
aI33
aa(lp8737
I545
aI33
aa(lp8738
I546
aI33
aa(lp8739
I547
aI34
aa(lp8740
I548
aI34
aa(lp8741
I549
aI34
aa(lp8742
I550
aI34
aa(lp8743
I551
aI34
aa(lp8744
I552
aI34
aa(lp8745
I553
aI34
aa(lp8746
I554
aI23
aatp8747
Rp8748
sI59
g71
((lp8749
(lp8750
I0
aI48
aa(lp8751
I1
aI48
aa(lp8752
I2
aI48
aa(lp8753
I3
aI37
aa(lp8754
I4
aI38
aa(lp8755
I5
aI38
aa(lp8756
I6
aI38
aa(lp8757
I7
aI27
aa(lp8758
I8
aI27
aa(lp8759
I9
aI28
aa(lp8760
I10
aI28
aa(lp8761
I11
aI17
aa(lp8762
I12
aI17
aa(lp8763
I13
aI17
aa(lp8764
I14
aI18
aa(lp8765
I84
aI18
aa(lp8766
I140
aI17
aa(lp8767
I141
aI17
aa(lp8768
I142
aI17
aa(lp8769
I143
aI17
aa(lp8770
I144
aI16
aa(lp8771
I145
aI16
aa(lp8772
I146
aI16
aa(lp8773
I147
aI16
aa(lp8774
I148
aI16
aa(lp8775
I149
aI15
aa(lp8776
I150
aI15
aa(lp8777
I151
aI15
aa(lp8778
I152
aI15
aa(lp8779
I153
aI15
aa(lp8780
I154
aI14
aa(lp8781
I165
aI14
aa(lp8782
I166
aI14
aa(lp8783
I167
aI14
aa(lp8784
I168
aI15
aa(lp8785
I169
aI15
aa(lp8786
I170
aI26
aa(lp8787
I171
aI26
aa(lp8788
I172
aI27
aa(lp8789
I173
aI27
aa(lp8790
I174
aI38
aa(lp8791
I175
aI38
aa(lp8792
I176
aI39
aa(lp8793
I177
aI39
aa(lp8794
I178
aI39
aa(lp8795
I179
aI50
aa(lp8796
I235
aI38
aa(lp8797
I236
aI38
aa(lp8798
I237
aI38
aa(lp8799
I238
aI26
aa(lp8800
I239
aI26
aa(lp8801
I240
aI26
aa(lp8802
I241
aI26
aa(lp8803
I242
aI14
aa(lp8804
I243
aI14
aa(lp8805
I244
aI14
aa(lp8806
I245
aI14
aa(lp8807
I246
aI2
aa(lp8808
I247
aI2
aa(lp8809
I248
aI2
aa(lp8810
I249
aI2
aa(lp8811
I305
aI2
aa(lp8812
I306
aI2
aa(lp8813
I307
aI3
aa(lp8814
I308
aI14
aa(lp8815
I309
aI14
aa(lp8816
I310
aI15
aa(lp8817
I311
aI15
aa(lp8818
I312
aI26
aa(lp8819
I313
aI27
aa(lp8820
I314
aI27
aa(lp8821
I315
aI27
aa(lp8822
I316
aI38
aa(lp8823
I317
aI39
aa(lp8824
I318
aI39
aa(lp8825
I319
aI39
aa(lp8826
I375
aI39
aa(lp8827
I376
aI39
aa(lp8828
I377
aI39
aa(lp8829
I378
aI39
aa(lp8830
I379
aI40
aa(lp8831
I380
aI40
aa(lp8832
I381
aI40
aa(lp8833
I382
aI40
aa(lp8834
I383
aI40
aa(lp8835
I384
aI41
aa(lp8836
I385
aI41
aa(lp8837
I386
aI41
aa(lp8838
I387
aI41
aa(lp8839
I388
aI41
aa(lp8840
I389
aI52
aa(lp8841
I445
aI41
aa(lp8842
I446
aI41
aa(lp8843
I447
aI41
aa(lp8844
I448
aI41
aa(lp8845
I449
aI30
aa(lp8846
I450
aI30
aa(lp8847
I451
aI30
aa(lp8848
I452
aI30
aa(lp8849
I453
aI30
aa(lp8850
I454
aI19
aa(lp8851
I455
aI19
aa(lp8852
I456
aI19
aa(lp8853
I457
aI19
aa(lp8854
I458
aI19
aa(lp8855
I459
aI8
aa(lp8856
I470
aI7
aa(lp8857
I471
aI7
aa(lp8858
I472
aI7
aa(lp8859
I473
aI18
aa(lp8860
I474
aI18
aa(lp8861
I475
aI18
aa(lp8862
I476
aI18
aa(lp8863
I477
aI29
aa(lp8864
I478
aI29
aa(lp8865
I479
aI29
aa(lp8866
I480
aI29
aa(lp8867
I481
aI40
aa(lp8868
I482
aI40
aa(lp8869
I483
aI40
aa(lp8870
I484
aI40
aa(lp8871
I540
aI40
aa(lp8872
I541
aI40
aa(lp8873
I542
aI40
aa(lp8874
I543
aI40
aa(lp8875
I544
aI41
aa(lp8876
I545
aI41
aa(lp8877
I546
aI41
aa(lp8878
I547
aI41
aa(lp8879
I548
aI41
aa(lp8880
I549
aI41
aa(lp8881
I550
aI42
aa(lp8882
I551
aI42
aa(lp8883
I552
aI42
aa(lp8884
I553
aI42
aa(lp8885
I554
aI53
aatp8886
Rp8887
sI60
g71
((lp8888
(lp8889
I0
aI49
aa(lp8890
I1
aI49
aa(lp8891
I2
aI49
aa(lp8892
I3
aI38
aa(lp8893
I4
aI38
aa(lp8894
I5
aI38
aa(lp8895
I6
aI38
aa(lp8896
I7
aI28
aa(lp8897
I8
aI28
aa(lp8898
I9
aI28
aa(lp8899
I10
aI28
aa(lp8900
I11
aI17
aa(lp8901
I12
aI17
aa(lp8902
I13
aI17
aa(lp8903
I14
aI18
aatp8904
Rp8905
sI61
g71
((lp8906
(lp8907
I0
aI50
aa(lp8908
I1
aI50
aa(lp8909
I2
aI50
aa(lp8910
I3
aI39
aa(lp8911
I4
aI40
aa(lp8912
I5
aI40
aa(lp8913
I6
aI40
aa(lp8914
I7
aI29
aa(lp8915
I8
aI29
aa(lp8916
I9
aI30
aa(lp8917
I10
aI30
aa(lp8918
I11
aI19
aa(lp8919
I12
aI19
aa(lp8920
I13
aI19
aa(lp8921
I14
aI19
aatp8922
Rp8923
sI62
g71
((lp8924
(lp8925
I0
aI51
aa(lp8926
I1
aI51
aa(lp8927
I2
aI51
aa(lp8928
I3
aI40
aa(lp8929
I4
aI40
aa(lp8930
I5
aI40
aa(lp8931
I6
aI40
aa(lp8932
I7
aI30
aa(lp8933
I8
aI30
aa(lp8934
I9
aI30
aa(lp8935
I10
aI30
aa(lp8936
I11
aI19
aa(lp8937
I12
aI19
aa(lp8938
I13
aI19
aa(lp8939
I14
aI20
aatp8940
Rp8941
sI63
g71
((lp8942
(lp8943
I0
aI52
aa(lp8944
I1
aI52
aa(lp8945
I2
aI52
aa(lp8946
I3
aI41
aa(lp8947
I4
aI41
aa(lp8948
I5
aI41
aa(lp8949
I6
aI41
aa(lp8950
I7
aI31
aa(lp8951
I8
aI31
aa(lp8952
I9
aI31
aa(lp8953
I10
aI31
aa(lp8954
I11
aI20
aa(lp8955
I12
aI20
aa(lp8956
I13
aI20
aa(lp8957
I14
aI20
aatp8958
Rp8959
sI64
g71
((lp8960
(lp8961
I0
aI53
aa(lp8962
I1
aI53
aa(lp8963
I2
aI53
aa(lp8964
I3
aI42
aa(lp8965
I4
aI42
aa(lp8966
I5
aI42
aa(lp8967
I6
aI42
aa(lp8968
I7
aI31
aa(lp8969
I8
aI31
aa(lp8970
I9
aI31
aa(lp8971
I10
aI31
aa(lp8972
I11
aI20
aa(lp8973
I12
aI20
aa(lp8974
I13
aI20
aa(lp8975
I14
aI20
aatp8976
Rp8977
sI65
g71
((lp8978
(lp8979
I0
aI53
aa(lp8980
I1
aI53
aa(lp8981
I2
aI53
aa(lp8982
I3
aI42
aa(lp8983
I4
aI42
aa(lp8984
I5
aI41
aa(lp8985
I6
aI41
aa(lp8986
I7
aI30
aa(lp8987
I8
aI30
aa(lp8988
I9
aI30
aa(lp8989
I10
aI29
aa(lp8990
I11
aI18
aa(lp8991
I12
aI18
aa(lp8992
I13
aI18
aa(lp8993
I14
aI18
aatp8994
Rp8995
ss.