(dp0
S'coords'
p1
(lp2
(F-5.0
F-28.0
tp3
a(F-5.0
F-27.5
tp4
a(F-5.0
F-27.0
tp5
a(F-5.0
F-26.5
tp6
a(F-4.818181818181818
F-28.0
tp7
a(F-4.818181818181818
F-27.5
tp8
a(F-4.818181818181818
F-27.0
tp9
a(F-4.818181818181818
F-26.5
tp10
a(F-4.636363636363637
F-28.0
tp11
a(F-4.636363636363637
F-27.5
tp12
a(F-4.636363636363637
F-27.0
tp13
a(F-4.636363636363637
F-26.5
tp14
a(F-4.454545454545455
F-28.0
tp15
a(F-4.454545454545455
F-27.5
tp16
a(F-4.454545454545455
F-27.0
tp17
a(F-4.454545454545455
F-26.5
tp18
a(F-4.2727272727272725
F-28.0
tp19
a(F-4.2727272727272725
F-27.5
tp20
a(F-4.2727272727272725
F-27.0
tp21
a(F-4.2727272727272725
F-26.5
tp22
a(F-4.090909090909091
F-28.0
tp23
a(F-4.090909090909091
F-27.5
tp24
a(F-4.090909090909091
F-27.0
tp25
a(F-4.090909090909091
F-26.5
tp26
a(F-3.909090909090909
F-28.0
tp27
a(F-3.909090909090909
F-27.5
tp28
a(F-3.909090909090909
F-27.0
tp29
a(F-3.909090909090909
F-26.5
tp30
a(F-3.7272727272727275
F-28.0
tp31
a(F-3.7272727272727275
F-27.5
tp32
a(F-3.7272727272727275
F-27.0
tp33
a(F-3.7272727272727275
F-26.5
tp34
a(F-3.5454545454545454
F-28.0
tp35
a(F-3.5454545454545454
F-27.5
tp36
a(F-3.5454545454545454
F-27.0
tp37
a(F-3.5454545454545454
F-26.5
tp38
a(F-3.3636363636363633
F-28.0
tp39
a(F-3.3636363636363633
F-27.5
tp40
a(F-3.3636363636363633
F-27.0
tp41
a(F-3.3636363636363633
F-26.5
tp42
a(F-3.1818181818181817
F-28.0
tp43
a(F-3.1818181818181817
F-27.5
tp44
a(F-3.1818181818181817
F-27.0
tp45
a(F-3.1818181818181817
F-26.5
tp46
asS'movement'
p47
(dp48
I1
ccollections
OrderedDict
p49
((lp50
(lp51
I0
aI1
aa(lp52
I294
aI27
aa(lp53
I295
aI27
aa(lp54
I298
aI27
aa(lp55
I311
aI27
aa(lp56
I312
aI27
aa(lp57
I320
aI27
aa(lp58
I328
aI27
aa(lp59
I337
aI27
aa(lp60
I339
aI27
aa(lp61
I354
aI27
aa(lp62
I391
aI27
aa(lp63
I392
aI27
aa(lp64
I430
aI27
aa(lp65
I441
aI27
aa(lp66
I452
aI27
aa(lp67
I461
aI27
aa(lp68
I824
aI39
aatp69
Rp70
sI2
g49
((lp71
(lp72
I0
aI2
aa(lp73
I295
aI3
aa(lp74
I296
aI3
aa(lp75
I297
aI3
aa(lp76
I298
aI3
aa(lp77
I301
aI3
aa(lp78
I303
aI3
aa(lp79
I307
aI3
aa(lp80
I310
aI3
aa(lp81
I312
aI3
aa(lp82
I316
aI3
aa(lp83
I317
aI3
aa(lp84
I318
aI3
aa(lp85
I319
aI3
aa(lp86
I320
aI3
aa(lp87
I321
aI3
aa(lp88
I322
aI3
aa(lp89
I323
aI3
aa(lp90
I324
aI3
aa(lp91
I326
aI3
aa(lp92
I328
aI3
aa(lp93
I329
aI3
aa(lp94
I332
aI3
aa(lp95
I335
aI3
aa(lp96
I338
aI3
aa(lp97
I341
aI3
aa(lp98
I342
aI3
aa(lp99
I347
aI3
aa(lp100
I351
aI3
aa(lp101
I353
aI3
aa(lp102
I355
aI3
aa(lp103
I356
aI3
aa(lp104
I357
aI3
aa(lp105
I358
aI3
aa(lp106
I360
aI3
aa(lp107
I361
aI3
aa(lp108
I362
aI3
aa(lp109
I363
aI3
aa(lp110
I364
aI3
aa(lp111
I367
aI3
aa(lp112
I371
aI3
aa(lp113
I373
aI3
aa(lp114
I374
aI3
aa(lp115
I376
aI3
aa(lp116
I377
aI3
aa(lp117
I379
aI3
aa(lp118
I381
aI3
aa(lp119
I387
aI3
aa(lp120
I390
aI3
aa(lp121
I391
aI3
aa(lp122
I392
aI3
aa(lp123
I394
aI3
aa(lp124
I406
aI3
aa(lp125
I407
aI3
aa(lp126
I408
aI3
aa(lp127
I413
aI3
aa(lp128
I414
aI3
aa(lp129
I417
aI3
aa(lp130
I427
aI3
aa(lp131
I433
aI3
aa(lp132
I434
aI3
aa(lp133
I442
aI3
aa(lp134
I447
aI3
aa(lp135
I448
aI3
aa(lp136
I449
aI3
aa(lp137
I450
aI3
aa(lp138
I451
aI3
aa(lp139
I452
aI3
aa(lp140
I453
aI3
aa(lp141
I455
aI3
aa(lp142
I457
aI3
aa(lp143
I469
aI3
aa(lp144
I471
aI3
aa(lp145
I472
aI3
aa(lp146
I473
aI3
aa(lp147
I474
aI3
aa(lp148
I475
aI3
aa(lp149
I476
aI3
aa(lp150
I477
aI3
aa(lp151
I478
aI3
aa(lp152
I479
aI3
aa(lp153
I480
aI3
aa(lp154
I486
aI3
aa(lp155
I487
aI3
aa(lp156
I488
aI3
aa(lp157
I489
aI3
aa(lp158
I490
aI3
aa(lp159
I491
aI3
aa(lp160
I495
aI3
aa(lp161
I496
aI3
aa(lp162
I497
aI3
aa(lp163
I498
aI3
aa(lp164
I500
aI3
aa(lp165
I501
aI3
aa(lp166
I502
aI3
aa(lp167
I503
aI3
aa(lp168
I504
aI3
aa(lp169
I505
aI3
aa(lp170
I506
aI3
aa(lp171
I507
aI3
aa(lp172
I508
aI3
aa(lp173
I509
aI3
aa(lp174
I510
aI3
aa(lp175
I511
aI3
aa(lp176
I512
aI3
aa(lp177
I514
aI3
aa(lp178
I515
aI3
aa(lp179
I541
aI31
aa(lp180
I547
aI31
aa(lp181
I549
aI31
aa(lp182
I560
aI31
aa(lp183
I568
aI31
aa(lp184
I581
aI31
aa(lp185
I590
aI31
aa(lp186
I592
aI31
aa(lp187
I593
aI31
aa(lp188
I595
aI31
aa(lp189
I602
aI31
aa(lp190
I603
aI31
aa(lp191
I617
aI31
aa(lp192
I618
aI31
aa(lp193
I620
aI31
aa(lp194
I624
aI31
aa(lp195
I626
aI31
aa(lp196
I627
aI31
aa(lp197
I631
aI31
aa(lp198
I639
aI31
aa(lp199
I640
aI31
aa(lp200
I646
aI31
aa(lp201
I651
aI31
aa(lp202
I663
aI31
aa(lp203
I666
aI31
aa(lp204
I668
aI31
aa(lp205
I688
aI31
aa(lp206
I689
aI31
aa(lp207
I694
aI31
aa(lp208
I696
aI31
aa(lp209
I697
aI31
aa(lp210
I699
aI31
aa(lp211
I703
aI31
aa(lp212
I712
aI31
aa(lp213
I727
aI31
aa(lp214
I728
aI31
aa(lp215
I743
aI31
aa(lp216
I745
aI31
aa(lp217
I747
aI31
aa(lp218
I751
aI31
aa(lp219
I757
aI31
aa(lp220
I768
aI23
aa(lp221
I831
aI39
aa(lp222
I844
aI31
aa(lp223
I871
aI39
aa(lp224
I891
aI31
aa(lp225
I894
aI31
aa(lp226
I897
aI31
aa(lp227
I898
aI31
aa(lp228
I900
aI31
aa(lp229
I901
aI31
aa(lp230
I902
aI31
aa(lp231
I903
aI31
aa(lp232
I904
aI31
aa(lp233
I942
aI31
aa(lp234
I945
aI31
aa(lp235
I946
aI31
aa(lp236
I947
aI31
aa(lp237
I948
aI31
aa(lp238
I949
aI31
aa(lp239
I962
aI31
aa(lp240
I972
aI31
aa(lp241
I976
aI31
aa(lp242
I977
aI31
aa(lp243
I989
aI31
aa(lp244
I991
aI31
aa(lp245
I993
aI31
aa(lp246
I1003
aI31
aa(lp247
I1004
aI31
aa(lp248
I1011
aI31
aa(lp249
I1013
aI31
aa(lp250
I1015
aI31
aa(lp251
I1016
aI31
aa(lp252
I1017
aI31
aa(lp253
I1018
aI31
aa(lp254
I1019
aI31
aa(lp255
I1021
aI31
aa(lp256
I1022
aI31
aa(lp257
I1023
aI31
aa(lp258
I1024
aI31
aa(lp259
I1025
aI31
aa(lp260
I1026
aI31
aa(lp261
I1027
aI31
aa(lp262
I1028
aI31
aa(lp263
I1029
aI31
aa(lp264
I1031
aI31
aa(lp265
I1032
aI31
aa(lp266
I1033
aI31
aa(lp267
I1034
aI31
aa(lp268
I1035
aI31
aa(lp269
I1041
aI31
aa(lp270
I1043
aI31
aa(lp271
I1045
aI31
aa(lp272
I1048
aI31
aa(lp273
I1050
aI31
aa(lp274
I1051
aI31
aa(lp275
I1053
aI31
aa(lp276
I1054
aI31
aa(lp277
I1056
aI31
aa(lp278
I1057
aI31
aa(lp279
I1058
aI31
aa(lp280
I1060
aI31
aa(lp281
I1061
aI31
aa(lp282
I1067
aI31
aa(lp283
I1068
aI31
aa(lp284
I1069
aI31
aa(lp285
I1070
aI31
aa(lp286
I1071
aI31
aa(lp287
I1072
aI31
aa(lp288
I1073
aI31
aa(lp289
I1074
aI31
aa(lp290
I1078
aI31
aa(lp291
I1079
aI31
aa(lp292
I1082
aI31
aa(lp293
I1083
aI31
aa(lp294
I1084
aI31
aa(lp295
I1085
aI31
aa(lp296
I1086
aI31
aa(lp297
I1087
aI31
aa(lp298
I1088
aI31
aa(lp299
I1089
aI31
aa(lp300
I1090
aI31
aa(lp301
I1091
aI31
aa(lp302
I1092
aI31
aa(lp303
I1093
aI31
aa(lp304
I1094
aI31
aa(lp305
I1095
aI31
aa(lp306
I1097
aI31
aa(lp307
I1098
aI31
aa(lp308
I1103
aI31
aa(lp309
I1104
aI31
aa(lp310
I1105
aI31
aa(lp311
I1106
aI31
aa(lp312
I1107
aI31
aa(lp313
I1108
aI31
aa(lp314
I1110
aI31
aa(lp315
I1112
aI31
aa(lp316
I1113
aI31
aa(lp317
I1114
aI31
aa(lp318
I1115
aI31
aa(lp319
I1116
aI31
aa(lp320
I1364
aI35
aa(lp321
I1380
aI35
aa(lp322
I1381
aI35
aa(lp323
I1384
aI35
aa(lp324
I1387
aI35
aa(lp325
I1389
aI35
aa(lp326
I1390
aI35
aa(lp327
I1391
aI35
aa(lp328
I1392
aI35
aa(lp329
I1393
aI35
aa(lp330
I1394
aI35
aa(lp331
I1395
aI35
aa(lp332
I1396
aI35
aa(lp333
I1397
aI35
aa(lp334
I1398
aI35
aa(lp335
I1399
aI35
aa(lp336
I1402
aI35
aa(lp337
I1404
aI35
aa(lp338
I1405
aI35
aa(lp339
I1406
aI35
aa(lp340
I1409
aI35
aa(lp341
I1411
aI35
aa(lp342
I1412
aI35
aa(lp343
I1413
aI35
aa(lp344
I1415
aI35
aa(lp345
I1416
aI35
aa(lp346
I1417
aI35
aa(lp347
I1419
aI35
aa(lp348
I1420
aI35
aa(lp349
I1421
aI35
aa(lp350
I1422
aI35
aa(lp351
I1425
aI35
aa(lp352
I1426
aI35
aa(lp353
I1428
aI35
aa(lp354
I1429
aI35
aa(lp355
I1431
aI35
aa(lp356
I1433
aI35
aa(lp357
I1434
aI35
aa(lp358
I1435
aI35
aa(lp359
I1436
aI35
aa(lp360
I1437
aI35
aa(lp361
I1440
aI35
aa(lp362
I1441
aI35
aa(lp363
I1443
aI35
aa(lp364
I1447
aI35
aa(lp365
I1448
aI35
aa(lp366
I1449
aI35
aa(lp367
I1450
aI35
aa(lp368
I1451
aI35
aa(lp369
I1452
aI35
aa(lp370
I1454
aI35
aa(lp371
I1456
aI35
aa(lp372
I1457
aI35
aa(lp373
I1458
aI35
aa(lp374
I1459
aI35
aa(lp375
I1461
aI35
aa(lp376
I1463
aI35
aa(lp377
I1467
aI35
aa(lp378
I1468
aI35
aa(lp379
I1469
aI35
aa(lp380
I1470
aI35
aa(lp381
I1472
aI35
aa(lp382
I1473
aI35
aa(lp383
I1474
aI35
aa(lp384
I1475
aI35
aa(lp385
I1476
aI35
aa(lp386
I1477
aI35
aa(lp387
I1478
aI35
aa(lp388
I1481
aI35
aa(lp389
I1482
aI35
aa(lp390
I1483
aI35
aa(lp391
I1485
aI35
aa(lp392
I1486
aI35
aa(lp393
I1488
aI35
aa(lp394
I1489
aI35
aa(lp395
I1490
aI35
aa(lp396
I1492
aI35
aa(lp397
I1493
aI35
aatp398
Rp399
sI3
g49
((lp400
(lp401
I0
aI3
aa(lp402
I545
aI31
aa(lp403
I547
aI31
aa(lp404
I548
aI31
aa(lp405
I549
aI31
aa(lp406
I550
aI31
aa(lp407
I593
aI31
aa(lp408
I684
aI11
aa(lp409
I729
aI31
aa(lp410
I735
aI11
aa(lp411
I736
aI11
aa(lp412
I738
aI11
aa(lp413
I840
aI39
aa(lp414
I879
aI39
aa(lp415
I884
aI43
aatp416
Rp417
sI4
g49
((lp418
(lp419
I0
aI4
aa(lp420
I285
aI43
aa(lp421
I289
aI3
aa(lp422
I525
aI11
aa(lp423
I527
aI36
aa(lp424
I528
aI18
aa(lp425
I538
aI31
aa(lp426
I641
aI31
aa(lp427
I741
aI31
aa(lp428
I781
aI27
aa(lp429
I1004
aI31
aa(lp430
I1005
aI31
aa(lp431
I1053
aI38
aa(lp432
I1062
aI43
aa(lp433
I1100
aI35
aa(lp434
I1111
aI39
aa(lp435
I1129
aI35
aa(lp436
I1131
aI35
aa(lp437
I1132
aI35
aa(lp438
I1134
aI35
aa(lp439
I1136
aI35
aa(lp440
I1137
aI35
aa(lp441
I1142
aI35
aa(lp442
I1151
aI35
aa(lp443
I1162
aI35
aa(lp444
I1171
aI35
aa(lp445
I1198
aI35
aa(lp446
I1201
aI35
aa(lp447
I1207
aI35
aa(lp448
I1209
aI35
aa(lp449
I1216
aI35
aa(lp450
I1225
aI35
aa(lp451
I1226
aI35
aa(lp452
I1227
aI35
aa(lp453
I1229
aI35
aa(lp454
I1233
aI35
aa(lp455
I1234
aI35
aa(lp456
I1276
aI35
aa(lp457
I1298
aI35
aa(lp458
I1303
aI35
aa(lp459
I1304
aI35
aa(lp460
I1305
aI35
aa(lp461
I1316
aI35
aa(lp462
I1320
aI35
aa(lp463
I1324
aI35
aa(lp464
I1337
aI35
aa(lp465
I1342
aI35
aa(lp466
I1343
aI35
aa(lp467
I1344
aI35
aa(lp468
I1347
aI35
aa(lp469
I1353
aI35
aa(lp470
I1354
aI35
aa(lp471
I1355
aI35
aa(lp472
I1356
aI35
aa(lp473
I1358
aI35
aa(lp474
I1359
aI35
aa(lp475
I1360
aI35
aatp476
Rp477
sI5
g49
((lp478
(lp479
I0
aI5
aa(lp480
I197
aI43
aa(lp481
I199
aI43
aa(lp482
I200
aI43
aa(lp483
I207
aI43
aa(lp484
I208
aI15
aa(lp485
I209
aI43
aa(lp486
I210
aI43
aa(lp487
I211
aI43
aa(lp488
I212
aI43
aa(lp489
I213
aI43
aa(lp490
I214
aI43
aa(lp491
I215
aI43
aa(lp492
I216
aI43
aa(lp493
I217
aI43
aa(lp494
I218
aI43
aa(lp495
I219
aI43
aa(lp496
I227
aI43
aa(lp497
I231
aI43
aa(lp498
I234
aI43
aa(lp499
I236
aI43
aa(lp500
I244
aI43
aa(lp501
I255
aI43
aa(lp502
I256
aI43
aa(lp503
I258
aI43
aa(lp504
I259
aI43
aa(lp505
I261
aI43
aa(lp506
I263
aI43
aa(lp507
I264
aI43
aa(lp508
I265
aI43
aa(lp509
I266
aI43
aa(lp510
I268
aI43
aa(lp511
I270
aI43
aa(lp512
I273
aI43
aa(lp513
I274
aI43
aa(lp514
I275
aI43
aa(lp515
I276
aI43
aa(lp516
I280
aI27
aa(lp517
I282
aI43
aa(lp518
I285
aI43
aa(lp519
I295
aI35
aa(lp520
I296
aI35
aa(lp521
I297
aI35
aa(lp522
I320
aI35
aa(lp523
I322
aI35
aa(lp524
I325
aI35
aa(lp525
I330
aI35
aa(lp526
I339
aI35
aa(lp527
I340
aI35
aa(lp528
I347
aI35
aa(lp529
I453
aI35
aa(lp530
I454
aI35
aa(lp531
I458
aI35
aa(lp532
I463
aI35
aa(lp533
I469
aI35
aa(lp534
I472
aI35
aa(lp535
I483
aI35
aa(lp536
I484
aI35
aa(lp537
I486
aI35
aa(lp538
I488
aI35
aa(lp539
I489
aI35
aa(lp540
I501
aI35
aa(lp541
I767
aI42
aa(lp542
I824
aI23
aa(lp543
I828
aI23
aa(lp544
I875
aI39
aa(lp545
I880
aI39
aa(lp546
I881
aI39
aa(lp547
I885
aI43
aa(lp548
I886
aI43
aa(lp549
I892
aI43
aa(lp550
I1124
aI31
aa(lp551
I1144
aI23
aa(lp552
I1306
aI23
aa(lp553
I1307
aI23
aa(lp554
I1308
aI23
aa(lp555
I1310
aI23
aa(lp556
I1312
aI23
aa(lp557
I1313
aI23
aa(lp558
I1314
aI23
aa(lp559
I1315
aI23
aa(lp560
I1316
aI23
aa(lp561
I1317
aI23
aa(lp562
I1318
aI23
aa(lp563
I1319
aI23
aa(lp564
I1320
aI23
aa(lp565
I1321
aI23
aa(lp566
I1322
aI23
aa(lp567
I1323
aI23
aa(lp568
I1324
aI23
aa(lp569
I1325
aI23
aa(lp570
I1326
aI23
aa(lp571
I1327
aI23
aa(lp572
I1328
aI23
aa(lp573
I1329
aI23
aa(lp574
I1330
aI23
aa(lp575
I1331
aI23
aa(lp576
I1332
aI23
aa(lp577
I1333
aI23
aa(lp578
I1334
aI23
aa(lp579
I1335
aI23
aa(lp580
I1336
aI23
aa(lp581
I1337
aI23
aa(lp582
I1338
aI23
aa(lp583
I1339
aI23
aa(lp584
I1340
aI23
aa(lp585
I1341
aI23
aa(lp586
I1342
aI23
aa(lp587
I1343
aI23
aa(lp588
I1344
aI23
aa(lp589
I1345
aI23
aa(lp590
I1346
aI23
aa(lp591
I1347
aI23
aa(lp592
I1348
aI23
aa(lp593
I1349
aI23
aa(lp594
I1350
aI23
aa(lp595
I1351
aI23
aa(lp596
I1352
aI23
aa(lp597
I1353
aI23
aa(lp598
I1354
aI23
aa(lp599
I1355
aI23
aa(lp600
I1356
aI23
aa(lp601
I1357
aI23
aa(lp602
I1358
aI23
aa(lp603
I1371
aI23
aa(lp604
I1372
aI23
aa(lp605
I1373
aI23
aa(lp606
I1376
aI23
aa(lp607
I1377
aI23
aa(lp608
I1378
aI23
aa(lp609
I1379
aI23
aa(lp610
I1381
aI23
aa(lp611
I1382
aI23
aa(lp612
I1383
aI23
aa(lp613
I1384
aI23
aa(lp614
I1385
aI23
aa(lp615
I1386
aI23
aa(lp616
I1387
aI23
aa(lp617
I1388
aI23
aa(lp618
I1389
aI23
aa(lp619
I1390
aI23
aa(lp620
I1391
aI23
aa(lp621
I1392
aI23
aa(lp622
I1393
aI23
aa(lp623
I1394
aI23
aa(lp624
I1395
aI23
aa(lp625
I1396
aI23
aa(lp626
I1398
aI23
aa(lp627
I1399
aI23
aa(lp628
I1400
aI23
aa(lp629
I1401
aI23
aa(lp630
I1402
aI23
aa(lp631
I1403
aI23
aa(lp632
I1404
aI23
aa(lp633
I1405
aI23
aa(lp634
I1406
aI23
aa(lp635
I1407
aI23
aa(lp636
I1408
aI23
aa(lp637
I1409
aI23
aa(lp638
I1411
aI23
aa(lp639
I1415
aI23
aa(lp640
I1419
aI23
aa(lp641
I1420
aI23
aa(lp642
I1421
aI23
aa(lp643
I1422
aI23
aa(lp644
I1423
aI23
aa(lp645
I1424
aI23
aa(lp646
I1425
aI23
aa(lp647
I1426
aI23
aa(lp648
I1427
aI23
aa(lp649
I1428
aI23
aa(lp650
I1429
aI23
aa(lp651
I1430
aI23
aa(lp652
I1431
aI23
aa(lp653
I1432
aI23
aa(lp654
I1433
aI23
aa(lp655
I1434
aI23
aa(lp656
I1435
aI23
aa(lp657
I1436
aI23
aa(lp658
I1437
aI23
aa(lp659
I1438
aI23
aa(lp660
I1439
aI23
aa(lp661
I1440
aI23
aa(lp662
I1441
aI23
aa(lp663
I1442
aI23
aa(lp664
I1443
aI23
aa(lp665
I1444
aI23
aa(lp666
I1446
aI23
aa(lp667
I1447
aI23
aa(lp668
I1448
aI23
aa(lp669
I1449
aI23
aa(lp670
I1450
aI23
aa(lp671
I1451
aI23
aa(lp672
I1452
aI23
aa(lp673
I1453
aI23
aa(lp674
I1454
aI23
aa(lp675
I1455
aI23
aa(lp676
I1456
aI23
aa(lp677
I1457
aI23
aa(lp678
I1458
aI23
aa(lp679
I1459
aI23
aa(lp680
I1460
aI23
aa(lp681
I1461
aI23
aa(lp682
I1462
aI23
aa(lp683
I1463
aI23
aa(lp684
I1464
aI23
aa(lp685
I1466
aI23
aa(lp686
I1467
aI23
aa(lp687
I1468
aI23
aa(lp688
I1469
aI23
aa(lp689
I1470
aI23
aa(lp690
I1472
aI23
aa(lp691
I1474
aI23
aa(lp692
I1475
aI23
aa(lp693
I1476
aI23
aa(lp694
I1477
aI23
aa(lp695
I1478
aI23
aa(lp696
I1479
aI23
aa(lp697
I1480
aI23
aa(lp698
I1481
aI23
aa(lp699
I1482
aI23
aa(lp700
I1483
aI23
aa(lp701
I1484
aI23
aa(lp702
I1486
aI23
aa(lp703
I1487
aI23
aa(lp704
I1488
aI23
aa(lp705
I1489
aI23
aa(lp706
I1492
aI23
aa(lp707
I1494
aI23
aa(lp708
I1496
aI23
aa(lp709
I1497
aI23
aa(lp710
I1498
aI23
aa(lp711
I1512
aI23
aa(lp712
I1513
aI23
aa(lp713
I1514
aI23
aa(lp714
I1515
aI23
aa(lp715
I1516
aI23
aa(lp716
I1517
aI23
aa(lp717
I1518
aI23
aa(lp718
I1519
aI23
aa(lp719
I1520
aI23
aa(lp720
I1524
aI34
aa(lp721
I1527
aI34
aatp722
Rp723
sI6
g49
((lp724
(lp725
I0
aI6
aa(lp726
I259
aI22
aa(lp727
I262
aI22
aa(lp728
I288
aI3
aa(lp729
I531
aI18
aa(lp730
I540
aI18
aa(lp731
I541
aI18
aa(lp732
I542
aI18
aa(lp733
I544
aI18
aa(lp734
I545
aI18
aa(lp735
I549
aI18
aa(lp736
I550
aI18
aa(lp737
I551
aI18
aa(lp738
I552
aI18
aa(lp739
I553
aI18
aa(lp740
I554
aI18
aa(lp741
I555
aI18
aa(lp742
I556
aI18
aa(lp743
I557
aI18
aa(lp744
I558
aI18
aa(lp745
I559
aI18
aa(lp746
I560
aI18
aa(lp747
I561
aI18
aa(lp748
I562
aI18
aa(lp749
I563
aI18
aa(lp750
I564
aI18
aa(lp751
I565
aI18
aa(lp752
I566
aI18
aa(lp753
I567
aI18
aa(lp754
I568
aI18
aa(lp755
I569
aI18
aa(lp756
I570
aI18
aa(lp757
I571
aI18
aa(lp758
I574
aI18
aa(lp759
I575
aI18
aa(lp760
I576
aI18
aa(lp761
I577
aI18
aa(lp762
I578
aI18
aa(lp763
I579
aI18
aa(lp764
I580
aI18
aa(lp765
I582
aI18
aa(lp766
I584
aI18
aa(lp767
I593
aI18
aa(lp768
I595
aI18
aa(lp769
I596
aI18
aa(lp770
I598
aI18
aa(lp771
I606
aI18
aa(lp772
I607
aI18
aa(lp773
I608
aI18
aa(lp774
I609
aI18
aa(lp775
I623
aI18
aa(lp776
I640
aI18
aa(lp777
I643
aI18
aa(lp778
I663
aI18
aa(lp779
I705
aI18
aa(lp780
I720
aI18
aa(lp781
I726
aI18
aa(lp782
I727
aI18
aa(lp783
I728
aI18
aa(lp784
I729
aI18
aa(lp785
I743
aI18
aa(lp786
I1005
aI11
aa(lp787
I1016
aI38
aa(lp788
I1057
aI43
aa(lp789
I1090
aI35
aa(lp790
I1095
aI35
aa(lp791
I1096
aI35
aa(lp792
I1118
aI31
aa(lp793
I1501
aI35
aa(lp794
I1502
aI35
aa(lp795
I1528
aI43
aatp796
Rp797
sI7
g49
((lp798
(lp799
I0
aI7
aa(lp800
I281
aI27
aa(lp801
I304
aI11
aa(lp802
I308
aI11
aa(lp803
I320
aI11
aa(lp804
I343
aI11
aa(lp805
I344
aI11
aa(lp806
I422
aI11
aa(lp807
I428
aI11
aa(lp808
I430
aI11
aa(lp809
I455
aI11
aa(lp810
I473
aI11
aa(lp811
I476
aI11
aa(lp812
I479
aI11
aa(lp813
I511
aI11
aa(lp814
I512
aI11
aa(lp815
I517
aI11
aa(lp816
I906
aI43
aa(lp817
I907
aI43
aa(lp818
I920
aI43
aa(lp819
I921
aI43
aa(lp820
I1130
aI35
aa(lp821
I1366
aI35
aatp822
Rp823
sI8
g49
((lp824
(lp825
I0
aI8
aa(lp826
I282
aI36
aa(lp827
I285
aI36
aa(lp828
I286
aI36
aa(lp829
I293
aI36
aa(lp830
I302
aI36
aa(lp831
I321
aI36
aa(lp832
I323
aI36
aa(lp833
I324
aI36
aa(lp834
I330
aI36
aa(lp835
I331
aI36
aa(lp836
I333
aI36
aa(lp837
I334
aI36
aa(lp838
I335
aI36
aa(lp839
I336
aI36
aa(lp840
I337
aI36
aa(lp841
I338
aI36
aa(lp842
I340
aI36
aa(lp843
I343
aI36
aa(lp844
I344
aI36
aa(lp845
I345
aI36
aa(lp846
I346
aI36
aa(lp847
I347
aI36
aa(lp848
I349
aI36
aa(lp849
I350
aI36
aa(lp850
I369
aI36
aa(lp851
I379
aI36
aa(lp852
I381
aI36
aa(lp853
I382
aI36
aa(lp854
I383
aI36
aa(lp855
I393
aI36
aa(lp856
I397
aI36
aa(lp857
I421
aI36
aa(lp858
I427
aI36
aa(lp859
I428
aI36
aa(lp860
I432
aI36
aa(lp861
I508
aI36
aa(lp862
I510
aI36
aa(lp863
I511
aI36
aa(lp864
I512
aI36
aa(lp865
I783
aI31
aa(lp866
I785
aI31
aa(lp867
I1034
aI39
aa(lp868
I1118
aI39
aa(lp869
I1120
aI35
aa(lp870
I1121
aI35
aa(lp871
I1124
aI23
aa(lp872
I1129
aI39
aa(lp873
I1130
aI39
aa(lp874
I1132
aI43
aa(lp875
I1133
aI43
aa(lp876
I1149
aI43
aa(lp877
I1160
aI43
aa(lp878
I1161
aI43
aa(lp879
I1162
aI43
aa(lp880
I1163
aI43
aa(lp881
I1166
aI43
aa(lp882
I1197
aI43
aa(lp883
I1199
aI43
aatp884
Rp885
sI9
g49
((lp886
(lp887
I0
aI9
aa(lp888
I196
aI34
aa(lp889
I197
aI34
aa(lp890
I198
aI31
aa(lp891
I200
aI31
aa(lp892
I201
aI31
aa(lp893
I202
aI31
aa(lp894
I203
aI31
aa(lp895
I204
aI31
aa(lp896
I205
aI31
aa(lp897
I206
aI31
aa(lp898
I208
aI31
aa(lp899
I209
aI31
aa(lp900
I210
aI31
aa(lp901
I211
aI31
aa(lp902
I212
aI31
aa(lp903
I213
aI31
aa(lp904
I214
aI31
aa(lp905
I215
aI31
aa(lp906
I217
aI31
aa(lp907
I218
aI31
aa(lp908
I219
aI31
aa(lp909
I220
aI31
aa(lp910
I221
aI31
aa(lp911
I222
aI31
aa(lp912
I223
aI31
aa(lp913
I224
aI31
aa(lp914
I226
aI31
aa(lp915
I227
aI31
aa(lp916
I228
aI31
aa(lp917
I229
aI31
aa(lp918
I230
aI31
aa(lp919
I231
aI31
aa(lp920
I232
aI31
aa(lp921
I233
aI31
aa(lp922
I234
aI31
aa(lp923
I235
aI31
aa(lp924
I236
aI31
aa(lp925
I237
aI31
aa(lp926
I238
aI31
aa(lp927
I239
aI31
aa(lp928
I240
aI31
aa(lp929
I241
aI31
aa(lp930
I242
aI31
aa(lp931
I243
aI31
aa(lp932
I244
aI31
aa(lp933
I245
aI31
aa(lp934
I246
aI31
aa(lp935
I247
aI31
aa(lp936
I248
aI31
aa(lp937
I249
aI31
aa(lp938
I250
aI31
aa(lp939
I251
aI31
aa(lp940
I252
aI31
aa(lp941
I253
aI31
aa(lp942
I254
aI31
aa(lp943
I255
aI31
aa(lp944
I256
aI31
aa(lp945
I257
aI31
aa(lp946
I258
aI31
aa(lp947
I259
aI31
aa(lp948
I261
aI31
aa(lp949
I262
aI31
aa(lp950
I263
aI31
aa(lp951
I264
aI31
aa(lp952
I265
aI31
aa(lp953
I266
aI31
aa(lp954
I267
aI31
aa(lp955
I268
aI31
aa(lp956
I269
aI31
aa(lp957
I270
aI31
aa(lp958
I271
aI31
aa(lp959
I272
aI31
aa(lp960
I273
aI31
aa(lp961
I274
aI31
aa(lp962
I275
aI31
aa(lp963
I276
aI31
aa(lp964
I288
aI42
aa(lp965
I291
aI11
aa(lp966
I292
aI15
aa(lp967
I293
aI15
aa(lp968
I296
aI15
aa(lp969
I297
aI11
aa(lp970
I305
aI15
aa(lp971
I306
aI15
aa(lp972
I309
aI15
aa(lp973
I310
aI15
aa(lp974
I318
aI11
aa(lp975
I327
aI11
aa(lp976
I328
aI11
aa(lp977
I329
aI11
aa(lp978
I330
aI11
aa(lp979
I331
aI11
aa(lp980
I332
aI11
aa(lp981
I335
aI11
aa(lp982
I336
aI11
aa(lp983
I345
aI11
aa(lp984
I359
aI11
aa(lp985
I371
aI11
aa(lp986
I393
aI11
aa(lp987
I396
aI11
aa(lp988
I397
aI11
aa(lp989
I398
aI11
aa(lp990
I399
aI11
aa(lp991
I406
aI11
aa(lp992
I409
aI11
aa(lp993
I410
aI11
aa(lp994
I416
aI11
aa(lp995
I418
aI11
aa(lp996
I419
aI11
aa(lp997
I420
aI11
aa(lp998
I423
aI11
aa(lp999
I436
aI11
aa(lp1000
I445
aI11
aa(lp1001
I460
aI11
aa(lp1002
I466
aI11
aa(lp1003
I467
aI11
aa(lp1004
I476
aI11
aa(lp1005
I478
aI11
aa(lp1006
I479
aI11
aa(lp1007
I484
aI11
aa(lp1008
I486
aI11
aa(lp1009
I489
aI11
aa(lp1010
I492
aI11
aa(lp1011
I497
aI11
aa(lp1012
I498
aI11
aa(lp1013
I507
aI11
aa(lp1014
I508
aI11
aa(lp1015
I509
aI11
aa(lp1016
I510
aI11
aa(lp1017
I511
aI11
aa(lp1018
I512
aI11
aa(lp1019
I515
aI11
aa(lp1020
I516
aI11
aa(lp1021
I517
aI11
aa(lp1022
I518
aI11
aa(lp1023
I519
aI11
aa(lp1024
I520
aI11
aa(lp1025
I521
aI11
aa(lp1026
I522
aI11
aa(lp1027
I523
aI42
aa(lp1028
I524
aI42
aa(lp1029
I534
aI18
aa(lp1030
I539
aI31
aa(lp1031
I540
aI31
aa(lp1032
I541
aI31
aa(lp1033
I542
aI31
aa(lp1034
I543
aI31
aa(lp1035
I544
aI31
aa(lp1036
I545
aI31
aa(lp1037
I546
aI31
aa(lp1038
I547
aI31
aa(lp1039
I548
aI31
aa(lp1040
I553
aI31
aa(lp1041
I555
aI31
aa(lp1042
I556
aI31
aa(lp1043
I557
aI31
aa(lp1044
I558
aI31
aa(lp1045
I559
aI31
aa(lp1046
I560
aI31
aa(lp1047
I561
aI31
aa(lp1048
I562
aI31
aa(lp1049
I563
aI31
aa(lp1050
I564
aI31
aa(lp1051
I565
aI31
aa(lp1052
I566
aI31
aa(lp1053
I567
aI31
aa(lp1054
I568
aI31
aa(lp1055
I569
aI31
aa(lp1056
I570
aI31
aa(lp1057
I571
aI31
aa(lp1058
I572
aI31
aa(lp1059
I573
aI31
aa(lp1060
I574
aI31
aa(lp1061
I575
aI31
aa(lp1062
I576
aI31
aa(lp1063
I577
aI31
aa(lp1064
I578
aI31
aa(lp1065
I579
aI31
aa(lp1066
I580
aI31
aa(lp1067
I581
aI31
aa(lp1068
I582
aI31
aa(lp1069
I584
aI31
aa(lp1070
I585
aI31
aa(lp1071
I586
aI31
aa(lp1072
I587
aI31
aa(lp1073
I588
aI31
aa(lp1074
I589
aI31
aa(lp1075
I590
aI31
aa(lp1076
I591
aI31
aa(lp1077
I592
aI31
aa(lp1078
I593
aI31
aa(lp1079
I594
aI31
aa(lp1080
I595
aI31
aa(lp1081
I596
aI31
aa(lp1082
I597
aI31
aa(lp1083
I598
aI31
aa(lp1084
I599
aI31
aa(lp1085
I600
aI31
aa(lp1086
I601
aI31
aa(lp1087
I602
aI31
aa(lp1088
I603
aI31
aa(lp1089
I604
aI31
aa(lp1090
I605
aI31
aa(lp1091
I606
aI31
aa(lp1092
I607
aI31
aa(lp1093
I608
aI31
aa(lp1094
I609
aI31
aa(lp1095
I610
aI31
aa(lp1096
I611
aI31
aa(lp1097
I612
aI31
aa(lp1098
I613
aI31
aa(lp1099
I614
aI31
aa(lp1100
I615
aI31
aa(lp1101
I616
aI31
aa(lp1102
I617
aI31
aa(lp1103
I618
aI31
aa(lp1104
I619
aI31
aa(lp1105
I620
aI31
aa(lp1106
I621
aI31
aa(lp1107
I622
aI31
aa(lp1108
I623
aI31
aa(lp1109
I624
aI31
aa(lp1110
I625
aI31
aa(lp1111
I626
aI31
aa(lp1112
I627
aI31
aa(lp1113
I628
aI31
aa(lp1114
I629
aI31
aa(lp1115
I630
aI31
aa(lp1116
I631
aI31
aa(lp1117
I632
aI31
aa(lp1118
I633
aI31
aa(lp1119
I634
aI31
aa(lp1120
I635
aI31
aa(lp1121
I636
aI31
aa(lp1122
I637
aI31
aa(lp1123
I638
aI31
aa(lp1124
I639
aI31
aa(lp1125
I640
aI31
aa(lp1126
I641
aI31
aa(lp1127
I642
aI31
aa(lp1128
I643
aI31
aa(lp1129
I644
aI31
aa(lp1130
I645
aI31
aa(lp1131
I646
aI31
aa(lp1132
I647
aI31
aa(lp1133
I648
aI31
aa(lp1134
I649
aI31
aa(lp1135
I650
aI31
aa(lp1136
I651
aI31
aa(lp1137
I652
aI31
aa(lp1138
I653
aI31
aa(lp1139
I654
aI31
aa(lp1140
I655
aI31
aa(lp1141
I656
aI31
aa(lp1142
I657
aI31
aa(lp1143
I658
aI31
aa(lp1144
I659
aI31
aa(lp1145
I660
aI31
aa(lp1146
I661
aI31
aa(lp1147
I662
aI31
aa(lp1148
I663
aI31
aa(lp1149
I664
aI31
aa(lp1150
I665
aI31
aa(lp1151
I666
aI31
aa(lp1152
I667
aI31
aa(lp1153
I668
aI31
aa(lp1154
I669
aI31
aa(lp1155
I670
aI31
aa(lp1156
I671
aI31
aa(lp1157
I672
aI31
aa(lp1158
I673
aI31
aa(lp1159
I674
aI31
aa(lp1160
I675
aI31
aa(lp1161
I676
aI31
aa(lp1162
I677
aI31
aa(lp1163
I678
aI31
aa(lp1164
I679
aI31
aa(lp1165
I680
aI31
aa(lp1166
I681
aI31
aa(lp1167
I682
aI31
aa(lp1168
I683
aI31
aa(lp1169
I684
aI31
aa(lp1170
I685
aI31
aa(lp1171
I686
aI31
aa(lp1172
I687
aI31
aa(lp1173
I688
aI31
aa(lp1174
I689
aI31
aa(lp1175
I690
aI31
aa(lp1176
I691
aI31
aa(lp1177
I692
aI31
aa(lp1178
I693
aI31
aa(lp1179
I694
aI31
aa(lp1180
I695
aI31
aa(lp1181
I696
aI31
aa(lp1182
I697
aI31
aa(lp1183
I698
aI31
aa(lp1184
I699
aI31
aa(lp1185
I700
aI31
aa(lp1186
I701
aI31
aa(lp1187
I702
aI31
aa(lp1188
I703
aI31
aa(lp1189
I704
aI31
aa(lp1190
I705
aI31
aa(lp1191
I706
aI31
aa(lp1192
I707
aI31
aa(lp1193
I708
aI31
aa(lp1194
I709
aI31
aa(lp1195
I710
aI31
aa(lp1196
I711
aI31
aa(lp1197
I712
aI31
aa(lp1198
I713
aI31
aa(lp1199
I714
aI31
aa(lp1200
I715
aI31
aa(lp1201
I716
aI31
aa(lp1202
I717
aI31
aa(lp1203
I718
aI31
aa(lp1204
I719
aI31
aa(lp1205
I720
aI31
aa(lp1206
I721
aI31
aa(lp1207
I722
aI31
aa(lp1208
I723
aI31
aa(lp1209
I724
aI31
aa(lp1210
I725
aI31
aa(lp1211
I726
aI31
aa(lp1212
I740
aI11
aa(lp1213
I741
aI11
aa(lp1214
I777
aI31
aa(lp1215
I788
aI31
aa(lp1216
I1018
aI35
aa(lp1217
I1064
aI31
aa(lp1218
I1081
aI23
aa(lp1219
I1121
aI23
aa(lp1220
I1123
aI23
aa(lp1221
I1306
aI23
aa(lp1222
I1366
aI35
aa(lp1223
I1373
aI39
aa(lp1224
I1374
aI35
aa(lp1225
I1375
aI35
aa(lp1226
I1376
aI35
aa(lp1227
I1377
aI35
aa(lp1228
I1380
aI35
aa(lp1229
I1382
aI35
aa(lp1230
I1383
aI35
aa(lp1231
I1384
aI35
aa(lp1232
I1386
aI35
aa(lp1233
I1387
aI35
aa(lp1234
I1389
aI35
aa(lp1235
I1390
aI35
aa(lp1236
I1392
aI35
aa(lp1237
I1394
aI35
aa(lp1238
I1397
aI35
aa(lp1239
I1398
aI35
aa(lp1240
I1399
aI35
aa(lp1241
I1400
aI35
aa(lp1242
I1401
aI35
aa(lp1243
I1402
aI35
aa(lp1244
I1403
aI35
aa(lp1245
I1405
aI35
aa(lp1246
I1406
aI35
aa(lp1247
I1407
aI35
aa(lp1248
I1409
aI35
aa(lp1249
I1411
aI39
aa(lp1250
I1412
aI39
aa(lp1251
I1413
aI39
aa(lp1252
I1415
aI39
aa(lp1253
I1416
aI39
aa(lp1254
I1417
aI39
aa(lp1255
I1418
aI39
aa(lp1256
I1419
aI39
aa(lp1257
I1420
aI39
aa(lp1258
I1421
aI39
aa(lp1259
I1423
aI39
aa(lp1260
I1424
aI39
aa(lp1261
I1425
aI39
aa(lp1262
I1426
aI39
aa(lp1263
I1427
aI39
aa(lp1264
I1428
aI39
aa(lp1265
I1429
aI39
aa(lp1266
I1430
aI39
aa(lp1267
I1431
aI39
aa(lp1268
I1435
aI39
aa(lp1269
I1440
aI39
aa(lp1270
I1441
aI39
aa(lp1271
I1442
aI39
aa(lp1272
I1443
aI39
aa(lp1273
I1444
aI39
aa(lp1274
I1445
aI39
aa(lp1275
I1446
aI39
aa(lp1276
I1447
aI39
aa(lp1277
I1448
aI39
aa(lp1278
I1449
aI39
aa(lp1279
I1450
aI39
aa(lp1280
I1451
aI39
aa(lp1281
I1453
aI39
aa(lp1282
I1458
aI39
aa(lp1283
I1461
aI39
aa(lp1284
I1462
aI39
aa(lp1285
I1463
aI39
aa(lp1286
I1465
aI39
aa(lp1287
I1466
aI39
aa(lp1288
I1467
aI39
aa(lp1289
I1468
aI39
aa(lp1290
I1469
aI39
aa(lp1291
I1470
aI39
aa(lp1292
I1471
aI39
aa(lp1293
I1472
aI39
aa(lp1294
I1473
aI39
aa(lp1295
I1474
aI39
aa(lp1296
I1475
aI39
aa(lp1297
I1476
aI39
aa(lp1298
I1477
aI39
aa(lp1299
I1478
aI39
aa(lp1300
I1479
aI39
aa(lp1301
I1480
aI39
aa(lp1302
I1481
aI39
aa(lp1303
I1482
aI39
aa(lp1304
I1483
aI39
aa(lp1305
I1484
aI39
aa(lp1306
I1485
aI39
aa(lp1307
I1486
aI39
aa(lp1308
I1487
aI39
aa(lp1309
I1488
aI39
aa(lp1310
I1489
aI39
aa(lp1311
I1490
aI39
aa(lp1312
I1491
aI39
aa(lp1313
I1492
aI39
aa(lp1314
I1493
aI39
aa(lp1315
I1494
aI39
aa(lp1316
I1495
aI39
aa(lp1317
I1496
aI39
aa(lp1318
I1497
aI39
aa(lp1319
I1498
aI39
aa(lp1320
I1499
aI39
aa(lp1321
I1500
aI39
aa(lp1322
I1501
aI39
aa(lp1323
I1502
aI39
aa(lp1324
I1503
aI39
aa(lp1325
I1504
aI39
aa(lp1326
I1505
aI39
aa(lp1327
I1506
aI39
aa(lp1328
I1507
aI39
aa(lp1329
I1508
aI39
aa(lp1330
I1509
aI39
aa(lp1331
I1510
aI39
aa(lp1332
I1513
aI39
aa(lp1333
I1514
aI39
aa(lp1334
I1515
aI39
aa(lp1335
I1516
aI39
aa(lp1336
I1517
aI39
aa(lp1337
I1518
aI39
aa(lp1338
I1519
aI39
aa(lp1339
I1520
aI39
aa(lp1340
I1522
aI39
aa(lp1341
I1527
aI34
aatp1342
Rp1343
sI10
g49
((lp1344
(lp1345
I0
aI10
aa(lp1346
I252
aI22
aa(lp1347
I254
aI22
aa(lp1348
I255
aI22
aa(lp1349
I256
aI22
aa(lp1350
I259
aI22
aa(lp1351
I261
aI22
aa(lp1352
I262
aI22
aa(lp1353
I266
aI22
aa(lp1354
I267
aI22
aa(lp1355
I275
aI22
aa(lp1356
I276
aI22
aa(lp1357
I286
aI35
aa(lp1358
I287
aI35
aa(lp1359
I288
aI35
aa(lp1360
I290
aI35
aa(lp1361
I294
aI35
aa(lp1362
I296
aI35
aa(lp1363
I297
aI35
aa(lp1364
I298
aI35
aa(lp1365
I299
aI35
aa(lp1366
I300
aI35
aa(lp1367
I301
aI35
aa(lp1368
I302
aI35
aa(lp1369
I303
aI35
aa(lp1370
I304
aI35
aa(lp1371
I305
aI35
aa(lp1372
I308
aI35
aa(lp1373
I309
aI35
aa(lp1374
I310
aI35
aa(lp1375
I311
aI35
aa(lp1376
I312
aI35
aa(lp1377
I315
aI35
aa(lp1378
I316
aI35
aa(lp1379
I317
aI35
aa(lp1380
I319
aI35
aa(lp1381
I321
aI35
aa(lp1382
I322
aI35
aa(lp1383
I324
aI35
aa(lp1384
I326
aI35
aa(lp1385
I329
aI35
aa(lp1386
I330
aI35
aa(lp1387
I331
aI35
aa(lp1388
I332
aI35
aa(lp1389
I333
aI35
aa(lp1390
I346
aI35
aa(lp1391
I347
aI35
aa(lp1392
I348
aI35
aa(lp1393
I349
aI35
aa(lp1394
I351
aI35
aa(lp1395
I353
aI35
aa(lp1396
I354
aI35
aa(lp1397
I368
aI35
aa(lp1398
I371
aI35
aa(lp1399
I372
aI35
aa(lp1400
I375
aI35
aa(lp1401
I378
aI35
aa(lp1402
I380
aI35
aa(lp1403
I385
aI35
aa(lp1404
I386
aI35
aa(lp1405
I390
aI35
aa(lp1406
I392
aI35
aa(lp1407
I404
aI35
aa(lp1408
I416
aI35
aa(lp1409
I418
aI35
aa(lp1410
I419
aI35
aa(lp1411
I424
aI35
aa(lp1412
I425
aI35
aa(lp1413
I427
aI35
aa(lp1414
I430
aI35
aa(lp1415
I433
aI35
aa(lp1416
I434
aI35
aa(lp1417
I438
aI35
aa(lp1418
I439
aI35
aa(lp1419
I442
aI35
aa(lp1420
I444
aI35
aa(lp1421
I446
aI35
aa(lp1422
I450
aI35
aa(lp1423
I451
aI35
aa(lp1424
I453
aI35
aa(lp1425
I459
aI35
aa(lp1426
I461
aI35
aa(lp1427
I464
aI35
aa(lp1428
I465
aI35
aa(lp1429
I473
aI35
aa(lp1430
I478
aI35
aa(lp1431
I482
aI35
aa(lp1432
I483
aI35
aa(lp1433
I485
aI35
aa(lp1434
I487
aI35
aa(lp1435
I491
aI35
aa(lp1436
I492
aI35
aa(lp1437
I493
aI35
aa(lp1438
I506
aI35
aa(lp1439
I507
aI35
aa(lp1440
I508
aI35
aa(lp1441
I510
aI35
aa(lp1442
I512
aI35
aa(lp1443
I513
aI35
aa(lp1444
I514
aI35
aa(lp1445
I521
aI18
aa(lp1446
I535
aI31
aa(lp1447
I1130
aI23
aa(lp1448
I1142
aI23
aa(lp1449
I1145
aI23
aa(lp1450
I1146
aI23
aa(lp1451
I1147
aI23
aa(lp1452
I1149
aI23
aa(lp1453
I1155
aI23
aa(lp1454
I1156
aI23
aa(lp1455
I1157
aI23
aa(lp1456
I1158
aI23
aa(lp1457
I1167
aI23
aa(lp1458
I1173
aI23
aa(lp1459
I1175
aI23
aa(lp1460
I1176
aI23
aa(lp1461
I1177
aI23
aa(lp1462
I1178
aI23
aa(lp1463
I1184
aI23
aa(lp1464
I1203
aI23
aa(lp1465
I1204
aI23
aa(lp1466
I1214
aI23
aa(lp1467
I1215
aI23
aa(lp1468
I1216
aI23
aa(lp1469
I1217
aI23
aa(lp1470
I1218
aI23
aa(lp1471
I1223
aI23
aa(lp1472
I1224
aI23
aa(lp1473
I1225
aI23
aa(lp1474
I1226
aI23
aa(lp1475
I1227
aI23
aa(lp1476
I1228
aI23
aa(lp1477
I1229
aI23
aa(lp1478
I1230
aI23
aa(lp1479
I1231
aI23
aa(lp1480
I1232
aI23
aa(lp1481
I1233
aI23
aa(lp1482
I1234
aI23
aa(lp1483
I1235
aI23
aa(lp1484
I1236
aI23
aa(lp1485
I1237
aI23
aa(lp1486
I1238
aI23
aa(lp1487
I1240
aI23
aa(lp1488
I1241
aI23
aa(lp1489
I1242
aI23
aa(lp1490
I1243
aI23
aa(lp1491
I1244
aI23
aa(lp1492
I1245
aI23
aa(lp1493
I1246
aI23
aa(lp1494
I1247
aI23
aa(lp1495
I1249
aI23
aa(lp1496
I1250
aI23
aa(lp1497
I1252
aI23
aa(lp1498
I1253
aI23
aa(lp1499
I1254
aI23
aa(lp1500
I1255
aI23
aa(lp1501
I1256
aI23
aa(lp1502
I1257
aI23
aa(lp1503
I1258
aI23
aa(lp1504
I1259
aI23
aa(lp1505
I1260
aI23
aa(lp1506
I1261
aI23
aa(lp1507
I1262
aI23
aa(lp1508
I1263
aI23
aa(lp1509
I1264
aI23
aa(lp1510
I1265
aI23
aa(lp1511
I1266
aI23
aa(lp1512
I1267
aI23
aa(lp1513
I1268
aI23
aa(lp1514
I1272
aI23
aa(lp1515
I1275
aI23
aa(lp1516
I1276
aI23
aa(lp1517
I1278
aI23
aa(lp1518
I1280
aI23
aa(lp1519
I1288
aI23
aa(lp1520
I1290
aI23
aa(lp1521
I1291
aI23
aa(lp1522
I1297
aI23
aa(lp1523
I1298
aI23
aa(lp1524
I1299
aI23
aa(lp1525
I1300
aI23
aa(lp1526
I1302
aI23
aa(lp1527
I1309
aI23
aa(lp1528
I1310
aI23
aa(lp1529
I1311
aI23
aa(lp1530
I1312
aI23
aa(lp1531
I1313
aI23
aa(lp1532
I1314
aI23
aa(lp1533
I1319
aI23
aa(lp1534
I1322
aI23
aa(lp1535
I1323
aI23
aa(lp1536
I1324
aI23
aa(lp1537
I1325
aI23
aa(lp1538
I1327
aI23
aa(lp1539
I1328
aI23
aa(lp1540
I1330
aI23
aa(lp1541
I1331
aI23
aa(lp1542
I1333
aI23
aa(lp1543
I1334
aI23
aa(lp1544
I1336
aI23
aa(lp1545
I1337
aI23
aa(lp1546
I1340
aI23
aa(lp1547
I1382
aI43
aa(lp1548
I1460
aI43
aatp1549
Rp1550
sI11
g49
((lp1551
(lp1552
I0
aI11
aa(lp1553
I539
aI31
aa(lp1554
I650
aI31
aa(lp1555
I816
aI39
aa(lp1556
I817
aI39
aa(lp1557
I818
aI39
aa(lp1558
I819
aI39
aa(lp1559
I820
aI39
aa(lp1560
I821
aI39
aa(lp1561
I822
aI39
aa(lp1562
I825
aI39
aa(lp1563
I826
aI39
aa(lp1564
I827
aI39
aa(lp1565
I829
aI39
aa(lp1566
I831
aI39
aa(lp1567
I834
aI39
aa(lp1568
I835
aI39
aa(lp1569
I836
aI39
aa(lp1570
I837
aI39
aa(lp1571
I838
aI39
aa(lp1572
I839
aI39
aa(lp1573
I840
aI39
aa(lp1574
I842
aI39
aa(lp1575
I843
aI39
aa(lp1576
I844
aI39
aa(lp1577
I846
aI39
aa(lp1578
I848
aI39
aa(lp1579
I849
aI39
aa(lp1580
I850
aI39
aa(lp1581
I851
aI39
aa(lp1582
I852
aI39
aa(lp1583
I853
aI39
aa(lp1584
I854
aI39
aa(lp1585
I855
aI39
aa(lp1586
I857
aI39
aa(lp1587
I858
aI39
aa(lp1588
I859
aI39
aa(lp1589
I860
aI39
aa(lp1590
I861
aI39
aa(lp1591
I862
aI39
aa(lp1592
I863
aI39
aa(lp1593
I864
aI39
aa(lp1594
I866
aI39
aatp1595
Rp1596
sI12
g49
((lp1597
(lp1598
I0
aI12
aa(lp1599
I287
aI35
aa(lp1600
I292
aI35
aa(lp1601
I298
aI35
aa(lp1602
I299
aI35
aa(lp1603
I309
aI35
aa(lp1604
I313
aI35
aa(lp1605
I314
aI35
aa(lp1606
I320
aI35
aa(lp1607
I330
aI35
aa(lp1608
I331
aI35
aa(lp1609
I332
aI35
aa(lp1610
I333
aI35
aa(lp1611
I334
aI35
aa(lp1612
I338
aI35
aa(lp1613
I346
aI35
aa(lp1614
I348
aI35
aa(lp1615
I351
aI35
aa(lp1616
I353
aI35
aa(lp1617
I366
aI35
aa(lp1618
I373
aI35
aa(lp1619
I375
aI35
aa(lp1620
I377
aI35
aa(lp1621
I378
aI35
aa(lp1622
I380
aI35
aa(lp1623
I382
aI35
aa(lp1624
I385
aI35
aa(lp1625
I389
aI35
aa(lp1626
I398
aI35
aa(lp1627
I400
aI35
aa(lp1628
I403
aI35
aa(lp1629
I404
aI35
aa(lp1630
I410
aI35
aa(lp1631
I429
aI35
aa(lp1632
I430
aI35
aa(lp1633
I431
aI35
aa(lp1634
I434
aI35
aa(lp1635
I443
aI35
aa(lp1636
I444
aI35
aa(lp1637
I450
aI35
aa(lp1638
I455
aI35
aa(lp1639
I457
aI35
aa(lp1640
I461
aI35
aa(lp1641
I466
aI35
aa(lp1642
I467
aI35
aa(lp1643
I475
aI35
aa(lp1644
I476
aI35
aa(lp1645
I479
aI35
aa(lp1646
I480
aI35
aa(lp1647
I481
aI35
aa(lp1648
I482
aI35
aa(lp1649
I483
aI35
aa(lp1650
I484
aI35
aa(lp1651
I485
aI35
aa(lp1652
I499
aI35
aa(lp1653
I502
aI35
aa(lp1654
I508
aI35
aa(lp1655
I517
aI35
aa(lp1656
I769
aI11
aa(lp1657
I772
aI43
aa(lp1658
I777
aI31
aa(lp1659
I778
aI31
aa(lp1660
I781
aI31
aa(lp1661
I786
aI31
aa(lp1662
I788
aI31
aa(lp1663
I790
aI31
aa(lp1664
I792
aI31
aa(lp1665
I909
aI43
aatp1666
Rp1667
sI13
g49
((lp1668
(lp1669
I0
aI13
aa(lp1670
I305
aI3
aa(lp1671
I306
aI3
aa(lp1672
I307
aI3
aa(lp1673
I308
aI3
aa(lp1674
I309
aI3
aa(lp1675
I310
aI3
aa(lp1676
I311
aI3
aa(lp1677
I312
aI3
aa(lp1678
I313
aI3
aa(lp1679
I314
aI3
aa(lp1680
I315
aI3
aa(lp1681
I316
aI3
aa(lp1682
I317
aI3
aa(lp1683
I323
aI3
aa(lp1684
I324
aI3
aa(lp1685
I325
aI3
aa(lp1686
I326
aI3
aa(lp1687
I327
aI3
aa(lp1688
I328
aI3
aa(lp1689
I329
aI3
aa(lp1690
I331
aI3
aa(lp1691
I332
aI3
aa(lp1692
I338
aI3
aa(lp1693
I339
aI3
aa(lp1694
I340
aI3
aa(lp1695
I341
aI3
aa(lp1696
I343
aI3
aa(lp1697
I344
aI3
aa(lp1698
I345
aI3
aa(lp1699
I346
aI3
aa(lp1700
I348
aI3
aa(lp1701
I350
aI3
aa(lp1702
I351
aI3
aa(lp1703
I352
aI3
aa(lp1704
I353
aI3
aa(lp1705
I354
aI3
aa(lp1706
I355
aI3
aa(lp1707
I356
aI3
aa(lp1708
I357
aI3
aa(lp1709
I358
aI3
aa(lp1710
I359
aI3
aa(lp1711
I360
aI3
aa(lp1712
I361
aI3
aa(lp1713
I362
aI3
aa(lp1714
I363
aI3
aa(lp1715
I364
aI3
aa(lp1716
I365
aI3
aa(lp1717
I366
aI3
aa(lp1718
I367
aI3
aa(lp1719
I368
aI3
aa(lp1720
I369
aI3
aa(lp1721
I370
aI3
aa(lp1722
I371
aI3
aa(lp1723
I372
aI3
aa(lp1724
I373
aI3
aa(lp1725
I374
aI3
aa(lp1726
I375
aI3
aa(lp1727
I376
aI3
aa(lp1728
I377
aI3
aa(lp1729
I378
aI3
aa(lp1730
I379
aI3
aa(lp1731
I380
aI3
aa(lp1732
I381
aI3
aa(lp1733
I383
aI3
aa(lp1734
I389
aI3
aa(lp1735
I390
aI3
aa(lp1736
I391
aI3
aa(lp1737
I392
aI3
aa(lp1738
I393
aI3
aa(lp1739
I394
aI3
aa(lp1740
I399
aI3
aa(lp1741
I400
aI3
aa(lp1742
I401
aI3
aa(lp1743
I402
aI3
aa(lp1744
I403
aI3
aa(lp1745
I404
aI3
aa(lp1746
I405
aI3
aa(lp1747
I406
aI3
aa(lp1748
I407
aI3
aa(lp1749
I409
aI3
aa(lp1750
I417
aI3
aa(lp1751
I418
aI3
aa(lp1752
I420
aI3
aa(lp1753
I421
aI3
aa(lp1754
I422
aI3
aa(lp1755
I423
aI3
aa(lp1756
I425
aI3
aa(lp1757
I427
aI3
aa(lp1758
I429
aI3
aa(lp1759
I430
aI3
aa(lp1760
I431
aI3
aa(lp1761
I432
aI3
aa(lp1762
I434
aI3
aa(lp1763
I435
aI3
aa(lp1764
I437
aI3
aa(lp1765
I439
aI3
aa(lp1766
I440
aI3
aa(lp1767
I441
aI3
aa(lp1768
I443
aI3
aa(lp1769
I444
aI3
aa(lp1770
I445
aI3
aa(lp1771
I447
aI3
aa(lp1772
I449
aI3
aa(lp1773
I450
aI3
aa(lp1774
I453
aI3
aa(lp1775
I454
aI3
aa(lp1776
I456
aI3
aa(lp1777
I457
aI3
aa(lp1778
I459
aI3
aa(lp1779
I461
aI3
aa(lp1780
I462
aI3
aa(lp1781
I464
aI3
aa(lp1782
I466
aI3
aa(lp1783
I472
aI3
aa(lp1784
I474
aI3
aa(lp1785
I478
aI3
aa(lp1786
I479
aI3
aa(lp1787
I480
aI3
aa(lp1788
I481
aI3
aa(lp1789
I482
aI3
aa(lp1790
I483
aI3
aa(lp1791
I486
aI3
aa(lp1792
I499
aI3
aa(lp1793
I500
aI3
aa(lp1794
I501
aI3
aa(lp1795
I503
aI3
aa(lp1796
I505
aI3
aa(lp1797
I517
aI3
aa(lp1798
I520
aI3
aa(lp1799
I521
aI3
aa(lp1800
I522
aI3
aa(lp1801
I523
aI3
aa(lp1802
I524
aI3
aa(lp1803
I525
aI3
aa(lp1804
I527
aI3
aa(lp1805
I596
aI31
aa(lp1806
I666
aI31
aa(lp1807
I667
aI31
aa(lp1808
I668
aI31
aa(lp1809
I669
aI31
aa(lp1810
I670
aI31
aa(lp1811
I671
aI31
aa(lp1812
I672
aI31
aa(lp1813
I673
aI31
aa(lp1814
I675
aI31
aa(lp1815
I676
aI31
aa(lp1816
I789
aI31
aa(lp1817
I791
aI27
aa(lp1818
I792
aI43
aa(lp1819
I796
aI31
aa(lp1820
I798
aI31
aa(lp1821
I799
aI11
aa(lp1822
I801
aI11
aa(lp1823
I803
aI11
aa(lp1824
I804
aI11
aa(lp1825
I805
aI11
aa(lp1826
I806
aI11
aa(lp1827
I807
aI11
aa(lp1828
I809
aI11
aa(lp1829
I812
aI11
aa(lp1830
I815
aI23
aa(lp1831
I1374
aI23
aa(lp1832
I1375
aI23
aa(lp1833
I1376
aI23
aa(lp1834
I1377
aI23
aa(lp1835
I1378
aI23
aa(lp1836
I1379
aI23
aa(lp1837
I1382
aI23
aa(lp1838
I1383
aI23
aa(lp1839
I1384
aI23
aa(lp1840
I1505
aI23
aa(lp1841
I1506
aI23
aa(lp1842
I1512
aI23
aa(lp1843
I1523
aI34
aatp1844
Rp1845
sI14
g49
((lp1846
(lp1847
I0
aI14
aatp1848
Rp1849
sI15
g49
((lp1850
(lp1851
I0
aI15
aa(lp1852
I528
aI31
aa(lp1853
I798
aI39
aa(lp1854
I869
aI39
aa(lp1855
I1373
aI43
aatp1856
Rp1857
sI16
g49
((lp1858
(lp1859
I0
aI16
aa(lp1860
I774
aI31
aa(lp1861
I775
aI31
aa(lp1862
I776
aI31
aa(lp1863
I790
aI27
aa(lp1864
I806
aI31
aa(lp1865
I813
aI27
aa(lp1866
I839
aI39
aa(lp1867
I952
aI14
aa(lp1868
I956
aI14
aa(lp1869
I1003
aI31
aa(lp1870
I1010
aI31
aa(lp1871
I1019
aI35
aa(lp1872
I1020
aI31
aa(lp1873
I1026
aI23
aa(lp1874
I1046
aI38
aa(lp1875
I1097
aI38
aatp1876
Rp1877
sI17
g49
((lp1878
(lp1879
I0
aI17
aa(lp1880
I291
aI31
aa(lp1881
I292
aI31
aa(lp1882
I293
aI31
aa(lp1883
I294
aI31
aa(lp1884
I295
aI31
aa(lp1885
I298
aI31
aa(lp1886
I307
aI31
aa(lp1887
I310
aI31
aa(lp1888
I313
aI31
aa(lp1889
I314
aI31
aa(lp1890
I316
aI31
aa(lp1891
I321
aI31
aa(lp1892
I323
aI31
aa(lp1893
I324
aI31
aa(lp1894
I331
aI31
aa(lp1895
I332
aI31
aa(lp1896
I333
aI31
aa(lp1897
I336
aI31
aa(lp1898
I337
aI31
aa(lp1899
I339
aI31
aa(lp1900
I340
aI31
aa(lp1901
I344
aI31
aa(lp1902
I345
aI31
aa(lp1903
I347
aI31
aa(lp1904
I348
aI31
aa(lp1905
I349
aI31
aa(lp1906
I352
aI31
aa(lp1907
I356
aI31
aa(lp1908
I357
aI31
aa(lp1909
I358
aI31
aa(lp1910
I359
aI31
aa(lp1911
I360
aI31
aa(lp1912
I361
aI31
aa(lp1913
I362
aI31
aa(lp1914
I363
aI31
aa(lp1915
I364
aI31
aa(lp1916
I365
aI31
aa(lp1917
I366
aI31
aa(lp1918
I367
aI31
aa(lp1919
I369
aI31
aa(lp1920
I370
aI31
aa(lp1921
I371
aI31
aa(lp1922
I373
aI31
aa(lp1923
I374
aI31
aa(lp1924
I375
aI31
aa(lp1925
I377
aI31
aa(lp1926
I378
aI31
aa(lp1927
I379
aI31
aa(lp1928
I380
aI31
aa(lp1929
I381
aI31
aa(lp1930
I382
aI31
aa(lp1931
I383
aI31
aa(lp1932
I384
aI31
aa(lp1933
I388
aI31
aa(lp1934
I389
aI31
aa(lp1935
I390
aI31
aa(lp1936
I393
aI31
aa(lp1937
I394
aI31
aa(lp1938
I396
aI31
aa(lp1939
I398
aI31
aa(lp1940
I399
aI31
aa(lp1941
I401
aI31
aa(lp1942
I402
aI31
aa(lp1943
I403
aI31
aa(lp1944
I405
aI31
aa(lp1945
I406
aI31
aa(lp1946
I407
aI31
aa(lp1947
I408
aI31
aa(lp1948
I409
aI31
aa(lp1949
I410
aI31
aa(lp1950
I411
aI31
aa(lp1951
I412
aI31
aa(lp1952
I413
aI31
aa(lp1953
I414
aI31
aa(lp1954
I415
aI31
aa(lp1955
I416
aI31
aa(lp1956
I417
aI31
aa(lp1957
I418
aI31
aa(lp1958
I419
aI31
aa(lp1959
I420
aI31
aa(lp1960
I421
aI31
aa(lp1961
I422
aI31
aa(lp1962
I423
aI31
aa(lp1963
I424
aI31
aa(lp1964
I425
aI31
aa(lp1965
I426
aI31
aa(lp1966
I427
aI31
aa(lp1967
I428
aI31
aa(lp1968
I429
aI31
aa(lp1969
I431
aI31
aa(lp1970
I433
aI31
aa(lp1971
I434
aI31
aa(lp1972
I435
aI31
aa(lp1973
I436
aI31
aa(lp1974
I437
aI31
aa(lp1975
I438
aI31
aa(lp1976
I439
aI31
aa(lp1977
I440
aI31
aa(lp1978
I442
aI31
aa(lp1979
I443
aI31
aa(lp1980
I444
aI31
aa(lp1981
I445
aI31
aa(lp1982
I446
aI31
aa(lp1983
I447
aI31
aa(lp1984
I448
aI31
aa(lp1985
I449
aI31
aa(lp1986
I450
aI31
aa(lp1987
I451
aI31
aa(lp1988
I452
aI31
aa(lp1989
I453
aI31
aa(lp1990
I455
aI31
aa(lp1991
I456
aI31
aa(lp1992
I457
aI31
aa(lp1993
I458
aI31
aa(lp1994
I459
aI31
aa(lp1995
I460
aI31
aa(lp1996
I461
aI31
aa(lp1997
I463
aI31
aa(lp1998
I464
aI31
aa(lp1999
I465
aI31
aa(lp2000
I466
aI31
aa(lp2001
I467
aI31
aa(lp2002
I468
aI31
aa(lp2003
I469
aI31
aa(lp2004
I470
aI31
aa(lp2005
I472
aI31
aa(lp2006
I474
aI31
aa(lp2007
I476
aI31
aa(lp2008
I478
aI31
aa(lp2009
I481
aI31
aa(lp2010
I482
aI31
aa(lp2011
I483
aI31
aa(lp2012
I484
aI31
aa(lp2013
I485
aI31
aa(lp2014
I486
aI31
aa(lp2015
I487
aI31
aa(lp2016
I488
aI31
aa(lp2017
I489
aI31
aa(lp2018
I490
aI31
aa(lp2019
I491
aI31
aa(lp2020
I492
aI31
aa(lp2021
I493
aI31
aa(lp2022
I495
aI31
aa(lp2023
I496
aI31
aa(lp2024
I497
aI31
aa(lp2025
I498
aI31
aa(lp2026
I499
aI31
aa(lp2027
I500
aI31
aa(lp2028
I501
aI31
aa(lp2029
I503
aI31
aa(lp2030
I504
aI31
aa(lp2031
I505
aI31
aa(lp2032
I507
aI31
aa(lp2033
I508
aI31
aa(lp2034
I509
aI31
aa(lp2035
I510
aI31
aa(lp2036
I511
aI31
aa(lp2037
I512
aI31
aa(lp2038
I514
aI31
aa(lp2039
I516
aI31
aa(lp2040
I517
aI31
aa(lp2041
I518
aI31
aa(lp2042
I776
aI31
aa(lp2043
I919
aI39
aa(lp2044
I940
aI39
aa(lp2045
I948
aI39
aa(lp2046
I949
aI39
aa(lp2047
I952
aI39
aa(lp2048
I954
aI39
aa(lp2049
I957
aI39
aa(lp2050
I963
aI39
aa(lp2051
I987
aI39
aa(lp2052
I996
aI39
aa(lp2053
I1003
aI39
aa(lp2054
I1004
aI39
aa(lp2055
I1127
aI39
aa(lp2056
I1128
aI39
aa(lp2057
I1129
aI39
aa(lp2058
I1131
aI39
aa(lp2059
I1136
aI39
aa(lp2060
I1137
aI39
aa(lp2061
I1138
aI39
aa(lp2062
I1139
aI39
aa(lp2063
I1140
aI39
aa(lp2064
I1141
aI39
aa(lp2065
I1142
aI39
aa(lp2066
I1155
aI39
aa(lp2067
I1157
aI39
aa(lp2068
I1171
aI39
aa(lp2069
I1172
aI39
aa(lp2070
I1174
aI39
aa(lp2071
I1175
aI39
aa(lp2072
I1176
aI39
aa(lp2073
I1177
aI39
aa(lp2074
I1178
aI39
aa(lp2075
I1179
aI39
aa(lp2076
I1180
aI39
aa(lp2077
I1181
aI39
aa(lp2078
I1183
aI39
aa(lp2079
I1187
aI39
aa(lp2080
I1188
aI39
aa(lp2081
I1189
aI39
aa(lp2082
I1191
aI39
aa(lp2083
I1197
aI39
aa(lp2084
I1247
aI39
aa(lp2085
I1259
aI39
aa(lp2086
I1264
aI39
aa(lp2087
I1266
aI39
aa(lp2088
I1286
aI39
aa(lp2089
I1287
aI39
aa(lp2090
I1288
aI39
aa(lp2091
I1289
aI39
aa(lp2092
I1290
aI39
aa(lp2093
I1291
aI39
aa(lp2094
I1292
aI39
aa(lp2095
I1293
aI39
aa(lp2096
I1294
aI39
aa(lp2097
I1295
aI39
aa(lp2098
I1296
aI39
aa(lp2099
I1297
aI39
aa(lp2100
I1298
aI39
aa(lp2101
I1299
aI39
aa(lp2102
I1300
aI39
aa(lp2103
I1301
aI39
aa(lp2104
I1312
aI39
aa(lp2105
I1316
aI39
aa(lp2106
I1350
aI39
aa(lp2107
I1367
aI39
aa(lp2108
I1370
aI39
aa(lp2109
I1376
aI43
aa(lp2110
I1399
aI43
aa(lp2111
I1408
aI43
aa(lp2112
I1409
aI43
aa(lp2113
I1411
aI43
aa(lp2114
I1424
aI43
aa(lp2115
I1425
aI43
aa(lp2116
I1431
aI43
aa(lp2117
I1432
aI43
aa(lp2118
I1433
aI43
aa(lp2119
I1442
aI43
aa(lp2120
I1445
aI43
aa(lp2121
I1447
aI43
aa(lp2122
I1451
aI43
aa(lp2123
I1466
aI43
aa(lp2124
I1485
aI43
aa(lp2125
I1493
aI43
aa(lp2126
I1494
aI43
aa(lp2127
I1495
aI43
aa(lp2128
I1497
aI43
aa(lp2129
I1498
aI43
aa(lp2130
I1499
aI43
aa(lp2131
I1500
aI43
aa(lp2132
I1501
aI43
aa(lp2133
I1502
aI43
aa(lp2134
I1503
aI43
aa(lp2135
I1504
aI43
aa(lp2136
I1505
aI43
aa(lp2137
I1508
aI43
aa(lp2138
I1509
aI43
aa(lp2139
I1510
aI43
aa(lp2140
I1511
aI43
aa(lp2141
I1512
aI43
aa(lp2142
I1513
aI43
aa(lp2143
I1514
aI43
aa(lp2144
I1515
aI43
aa(lp2145
I1516
aI43
aa(lp2146
I1518
aI43
aa(lp2147
I1519
aI43
aa(lp2148
I1521
aI43
aa(lp2149
I1522
aI43
aa(lp2150
I1523
aI43
aa(lp2151
I1524
aI43
aa(lp2152
I1525
aI43
aa(lp2153
I1526
aI43
aa(lp2154
I1527
aI43
aa(lp2155
I1529
aI43
aa(lp2156
I1532
aI43
aatp2157
Rp2158
sI18
g49
((lp2159
(lp2160
I0
aI18
aa(lp2161
I1003
aI31
aa(lp2162
I1123
aI23
aatp2163
Rp2164
sI19
g49
((lp2165
(lp2166
I0
aI19
aa(lp2167
I252
aI35
aa(lp2168
I253
aI35
aa(lp2169
I528
aI31
aa(lp2170
I536
aI23
aa(lp2171
I538
aI23
aa(lp2172
I540
aI23
aa(lp2173
I545
aI23
aa(lp2174
I546
aI23
aa(lp2175
I550
aI23
aa(lp2176
I558
aI23
aa(lp2177
I566
aI23
aa(lp2178
I571
aI23
aa(lp2179
I572
aI23
aa(lp2180
I576
aI23
aa(lp2181
I580
aI23
aa(lp2182
I587
aI23
aa(lp2183
I591
aI23
aa(lp2184
I592
aI23
aa(lp2185
I593
aI23
aa(lp2186
I595
aI23
aa(lp2187
I596
aI23
aa(lp2188
I599
aI23
aa(lp2189
I609
aI23
aa(lp2190
I620
aI23
aa(lp2191
I625
aI23
aa(lp2192
I628
aI23
aa(lp2193
I630
aI23
aa(lp2194
I632
aI23
aa(lp2195
I634
aI23
aa(lp2196
I655
aI23
aa(lp2197
I675
aI23
aa(lp2198
I682
aI23
aa(lp2199
I700
aI23
aa(lp2200
I702
aI23
aa(lp2201
I703
aI23
aa(lp2202
I704
aI23
aa(lp2203
I707
aI23
aa(lp2204
I708
aI23
aa(lp2205
I713
aI23
aa(lp2206
I722
aI23
aa(lp2207
I724
aI23
aa(lp2208
I730
aI23
aa(lp2209
I731
aI23
aa(lp2210
I732
aI23
aa(lp2211
I743
aI23
aa(lp2212
I745
aI23
aa(lp2213
I753
aI23
aa(lp2214
I754
aI23
aa(lp2215
I760
aI23
aa(lp2216
I761
aI23
aa(lp2217
I769
aI35
aatp2218
Rp2219
sI20
g49
((lp2220
(lp2221
I0
aI20
aa(lp2222
I1397
aI35
aa(lp2223
I1398
aI35
aa(lp2224
I1401
aI35
aa(lp2225
I1402
aI35
aa(lp2226
I1403
aI35
aa(lp2227
I1404
aI35
aa(lp2228
I1408
aI35
aa(lp2229
I1410
aI35
aa(lp2230
I1413
aI35
aa(lp2231
I1414
aI35
aa(lp2232
I1416
aI35
aa(lp2233
I1417
aI35
aa(lp2234
I1418
aI35
aa(lp2235
I1419
aI35
aa(lp2236
I1423
aI35
aa(lp2237
I1427
aI35
aa(lp2238
I1533
aI39
aa(lp2239
I1535
aI43
aatp2240
Rp2241
sI21
g49
((lp2242
(lp2243
I0
aI21
aa(lp2244
I291
aI11
aa(lp2245
I292
aI11
aa(lp2246
I296
aI11
aa(lp2247
I308
aI11
aa(lp2248
I309
aI11
aa(lp2249
I310
aI11
aa(lp2250
I312
aI11
aa(lp2251
I313
aI11
aa(lp2252
I318
aI11
aa(lp2253
I319
aI11
aa(lp2254
I320
aI11
aa(lp2255
I321
aI11
aa(lp2256
I326
aI11
aa(lp2257
I330
aI11
aa(lp2258
I332
aI11
aa(lp2259
I334
aI11
aa(lp2260
I335
aI11
aa(lp2261
I336
aI11
aa(lp2262
I337
aI11
aa(lp2263
I338
aI11
aa(lp2264
I350
aI11
aa(lp2265
I352
aI11
aa(lp2266
I353
aI11
aa(lp2267
I355
aI11
aa(lp2268
I361
aI11
aa(lp2269
I362
aI11
aa(lp2270
I364
aI11
aa(lp2271
I365
aI11
aa(lp2272
I366
aI11
aa(lp2273
I377
aI11
aa(lp2274
I384
aI11
aa(lp2275
I386
aI11
aa(lp2276
I387
aI11
aa(lp2277
I388
aI11
aa(lp2278
I390
aI11
aa(lp2279
I397
aI11
aa(lp2280
I398
aI11
aa(lp2281
I415
aI11
aa(lp2282
I416
aI11
aa(lp2283
I417
aI11
aa(lp2284
I418
aI11
aa(lp2285
I421
aI11
aa(lp2286
I422
aI11
aa(lp2287
I425
aI11
aa(lp2288
I427
aI11
aa(lp2289
I435
aI11
aa(lp2290
I438
aI11
aa(lp2291
I441
aI11
aa(lp2292
I442
aI11
aa(lp2293
I443
aI11
aa(lp2294
I446
aI11
aa(lp2295
I449
aI11
aa(lp2296
I464
aI11
aa(lp2297
I465
aI11
aa(lp2298
I474
aI11
aa(lp2299
I475
aI11
aa(lp2300
I477
aI11
aa(lp2301
I479
aI11
aa(lp2302
I482
aI11
aa(lp2303
I483
aI11
aa(lp2304
I484
aI11
aa(lp2305
I485
aI11
aa(lp2306
I486
aI11
aa(lp2307
I489
aI11
aa(lp2308
I492
aI11
aa(lp2309
I493
aI11
aa(lp2310
I494
aI11
aa(lp2311
I495
aI11
aa(lp2312
I496
aI11
aa(lp2313
I497
aI11
aa(lp2314
I500
aI11
aa(lp2315
I501
aI11
aa(lp2316
I502
aI11
aa(lp2317
I503
aI11
aa(lp2318
I506
aI11
aa(lp2319
I508
aI11
aa(lp2320
I511
aI11
aa(lp2321
I512
aI11
aa(lp2322
I1056
aI35
aa(lp2323
I1072
aI35
aa(lp2324
I1090
aI35
aa(lp2325
I1360
aI35
aa(lp2326
I1415
aI35
aatp2327
Rp2328
sI22
g49
((lp2329
(lp2330
I0
aI22
aa(lp2331
I297
aI11
aa(lp2332
I298
aI11
aa(lp2333
I299
aI11
aa(lp2334
I300
aI11
aa(lp2335
I302
aI11
aa(lp2336
I306
aI11
aa(lp2337
I307
aI11
aa(lp2338
I308
aI11
aa(lp2339
I314
aI11
aa(lp2340
I319
aI11
aa(lp2341
I329
aI11
aa(lp2342
I330
aI11
aa(lp2343
I331
aI11
aa(lp2344
I335
aI11
aa(lp2345
I336
aI11
aa(lp2346
I342
aI11
aa(lp2347
I365
aI11
aa(lp2348
I367
aI11
aa(lp2349
I369
aI11
aa(lp2350
I370
aI11
aa(lp2351
I371
aI11
aa(lp2352
I375
aI11
aa(lp2353
I377
aI11
aa(lp2354
I388
aI11
aa(lp2355
I408
aI11
aa(lp2356
I411
aI11
aa(lp2357
I414
aI11
aa(lp2358
I422
aI11
aa(lp2359
I423
aI11
aa(lp2360
I426
aI11
aa(lp2361
I428
aI11
aa(lp2362
I429
aI11
aa(lp2363
I436
aI11
aa(lp2364
I441
aI11
aa(lp2365
I458
aI11
aa(lp2366
I462
aI11
aa(lp2367
I464
aI11
aa(lp2368
I465
aI11
aa(lp2369
I468
aI11
aa(lp2370
I473
aI11
aa(lp2371
I474
aI11
aa(lp2372
I476
aI11
aa(lp2373
I479
aI11
aa(lp2374
I492
aI11
aa(lp2375
I493
aI11
aa(lp2376
I502
aI11
aa(lp2377
I503
aI11
aa(lp2378
I504
aI11
aa(lp2379
I505
aI11
aa(lp2380
I506
aI11
aa(lp2381
I515
aI11
aa(lp2382
I824
aI39
aa(lp2383
I1121
aI23
aa(lp2384
I1138
aI35
aa(lp2385
I1145
aI35
aa(lp2386
I1146
aI35
aa(lp2387
I1158
aI35
aa(lp2388
I1247
aI35
aa(lp2389
I1268
aI35
aa(lp2390
I1301
aI35
aa(lp2391
I1316
aI35
aa(lp2392
I1348
aI35
aa(lp2393
I1349
aI35
aa(lp2394
I1352
aI35
aa(lp2395
I1367
aI39
aa(lp2396
I1376
aI43
aa(lp2397
I1481
aI35
aatp2398
Rp2399
sI23
g49
((lp2400
(lp2401
I0
aI23
aatp2402
Rp2403
sI24
g49
((lp2404
(lp2405
I0
aI24
aa(lp2406
I305
aI15
aa(lp2407
I309
aI15
aa(lp2408
I332
aI11
aa(lp2409
I448
aI11
aa(lp2410
I513
aI11
aa(lp2411
I517
aI42
aa(lp2412
I530
aI31
aa(lp2413
I536
aI27
aa(lp2414
I541
aI27
aa(lp2415
I542
aI27
aa(lp2416
I543
aI27
aa(lp2417
I547
aI27
aa(lp2418
I548
aI27
aa(lp2419
I549
aI27
aa(lp2420
I550
aI27
aa(lp2421
I552
aI27
aa(lp2422
I553
aI27
aa(lp2423
I556
aI27
aa(lp2424
I559
aI27
aa(lp2425
I560
aI27
aa(lp2426
I562
aI27
aa(lp2427
I565
aI27
aa(lp2428
I568
aI27
aa(lp2429
I569
aI27
aa(lp2430
I571
aI27
aa(lp2431
I572
aI27
aa(lp2432
I573
aI27
aa(lp2433
I574
aI27
aa(lp2434
I576
aI27
aa(lp2435
I577
aI27
aa(lp2436
I578
aI27
aa(lp2437
I580
aI27
aa(lp2438
I581
aI27
aa(lp2439
I583
aI27
aa(lp2440
I584
aI27
aa(lp2441
I585
aI27
aa(lp2442
I587
aI27
aa(lp2443
I588
aI27
aa(lp2444
I589
aI27
aa(lp2445
I591
aI27
aa(lp2446
I592
aI27
aa(lp2447
I594
aI27
aa(lp2448
I599
aI27
aa(lp2449
I622
aI27
aa(lp2450
I635
aI27
aa(lp2451
I637
aI27
aa(lp2452
I643
aI27
aa(lp2453
I646
aI31
aa(lp2454
I649
aI27
aa(lp2455
I650
aI31
aa(lp2456
I651
aI27
aa(lp2457
I657
aI27
aa(lp2458
I659
aI27
aa(lp2459
I660
aI27
aa(lp2460
I661
aI27
aa(lp2461
I662
aI27
aa(lp2462
I664
aI27
aa(lp2463
I665
aI27
aa(lp2464
I666
aI27
aa(lp2465
I667
aI27
aa(lp2466
I668
aI27
aa(lp2467
I669
aI27
aa(lp2468
I670
aI27
aa(lp2469
I671
aI27
aa(lp2470
I673
aI27
aa(lp2471
I675
aI27
aa(lp2472
I676
aI27
aa(lp2473
I677
aI27
aa(lp2474
I678
aI27
aa(lp2475
I679
aI27
aa(lp2476
I680
aI27
aa(lp2477
I681
aI27
aa(lp2478
I682
aI27
aa(lp2479
I683
aI27
aa(lp2480
I685
aI27
aa(lp2481
I686
aI27
aa(lp2482
I687
aI27
aa(lp2483
I688
aI27
aa(lp2484
I689
aI27
aa(lp2485
I690
aI27
aa(lp2486
I691
aI27
aa(lp2487
I693
aI27
aa(lp2488
I694
aI27
aa(lp2489
I695
aI27
aa(lp2490
I696
aI27
aa(lp2491
I697
aI27
aa(lp2492
I698
aI27
aa(lp2493
I699
aI27
aa(lp2494
I701
aI27
aa(lp2495
I702
aI27
aa(lp2496
I703
aI27
aa(lp2497
I704
aI27
aa(lp2498
I705
aI27
aa(lp2499
I706
aI27
aa(lp2500
I707
aI27
aa(lp2501
I708
aI27
aa(lp2502
I711
aI27
aa(lp2503
I712
aI27
aa(lp2504
I713
aI27
aa(lp2505
I714
aI27
aa(lp2506
I715
aI27
aa(lp2507
I716
aI27
aa(lp2508
I717
aI27
aa(lp2509
I718
aI27
aa(lp2510
I719
aI27
aa(lp2511
I720
aI27
aa(lp2512
I721
aI27
aa(lp2513
I723
aI27
aa(lp2514
I724
aI27
aa(lp2515
I726
aI27
aa(lp2516
I727
aI27
aa(lp2517
I728
aI27
aa(lp2518
I729
aI27
aa(lp2519
I730
aI27
aa(lp2520
I737
aI27
aa(lp2521
I738
aI27
aa(lp2522
I739
aI27
aa(lp2523
I741
aI27
aa(lp2524
I743
aI27
aa(lp2525
I744
aI27
aa(lp2526
I746
aI27
aa(lp2527
I747
aI27
aa(lp2528
I750
aI27
aa(lp2529
I751
aI27
aa(lp2530
I757
aI27
aa(lp2531
I1014
aI43
aa(lp2532
I1015
aI31
aa(lp2533
I1016
aI35
aa(lp2534
I1019
aI35
aa(lp2535
I1023
aI35
aa(lp2536
I1025
aI35
aa(lp2537
I1033
aI35
aa(lp2538
I1038
aI35
aa(lp2539
I1041
aI35
aa(lp2540
I1043
aI35
aa(lp2541
I1047
aI35
aa(lp2542
I1049
aI11
aa(lp2543
I1050
aI11
aa(lp2544
I1051
aI35
aa(lp2545
I1052
aI23
aa(lp2546
I1053
aI35
aa(lp2547
I1054
aI11
aa(lp2548
I1055
aI11
aa(lp2549
I1056
aI35
aa(lp2550
I1057
aI35
aa(lp2551
I1058
aI35
aa(lp2552
I1059
aI35
aa(lp2553
I1060
aI35
aa(lp2554
I1061
aI35
aa(lp2555
I1062
aI35
aa(lp2556
I1063
aI35
aa(lp2557
I1064
aI35
aa(lp2558
I1065
aI35
aa(lp2559
I1066
aI35
aa(lp2560
I1067
aI35
aa(lp2561
I1068
aI35
aa(lp2562
I1069
aI35
aa(lp2563
I1070
aI35
aa(lp2564
I1071
aI14
aa(lp2565
I1073
aI35
aa(lp2566
I1074
aI35
aa(lp2567
I1076
aI35
aa(lp2568
I1077
aI35
aa(lp2569
I1078
aI35
aa(lp2570
I1080
aI35
aa(lp2571
I1081
aI35
aa(lp2572
I1082
aI35
aa(lp2573
I1083
aI35
aa(lp2574
I1084
aI35
aa(lp2575
I1085
aI35
aa(lp2576
I1086
aI35
aa(lp2577
I1087
aI35
aa(lp2578
I1088
aI35
aa(lp2579
I1089
aI35
aa(lp2580
I1093
aI35
aa(lp2581
I1094
aI35
aa(lp2582
I1095
aI35
aa(lp2583
I1096
aI35
aa(lp2584
I1097
aI35
aa(lp2585
I1098
aI35
aa(lp2586
I1099
aI35
aa(lp2587
I1100
aI35
aa(lp2588
I1101
aI35
aa(lp2589
I1103
aI35
aa(lp2590
I1104
aI35
aa(lp2591
I1106
aI35
aa(lp2592
I1109
aI35
aa(lp2593
I1111
aI35
aa(lp2594
I1112
aI35
aa(lp2595
I1114
aI35
aa(lp2596
I1116
aI35
aa(lp2597
I1117
aI35
aa(lp2598
I1134
aI31
aa(lp2599
I1135
aI31
aa(lp2600
I1139
aI31
aa(lp2601
I1140
aI31
aa(lp2602
I1142
aI31
aa(lp2603
I1143
aI23
aa(lp2604
I1156
aI23
aa(lp2605
I1212
aI23
aa(lp2606
I1222
aI23
aa(lp2607
I1232
aI23
aa(lp2608
I1269
aI23
aa(lp2609
I1291
aI23
aa(lp2610
I1299
aI23
aa(lp2611
I1307
aI23
aa(lp2612
I1335
aI23
aa(lp2613
I1362
aI23
aatp2614
Rp2615
sI25
g49
((lp2616
(lp2617
I0
aI25
aa(lp2618
I533
aI18
aa(lp2619
I1024
aI38
aa(lp2620
I1052
aI38
aa(lp2621
I1104
aI43
aa(lp2622
I1105
aI43
aa(lp2623
I1118
aI43
aa(lp2624
I1119
aI43
aa(lp2625
I1388
aI43
aa(lp2626
I1393
aI43
aa(lp2627
I1400
aI43
aa(lp2628
I1407
aI43
aa(lp2629
I1519
aI43
aa(lp2630
I1527
aI43
aatp2631
Rp2632
sI26
g49
((lp2633
(lp2634
I0
aI26
aatp2635
Rp2636
sI27
g49
((lp2637
(lp2638
I0
aI27
aa(lp2639
I289
aI31
aa(lp2640
I1021
aI35
aa(lp2641
I1022
aI35
aa(lp2642
I1023
aI35
aa(lp2643
I1026
aI35
aa(lp2644
I1028
aI35
aa(lp2645
I1029
aI35
aa(lp2646
I1030
aI35
aa(lp2647
I1033
aI35
aa(lp2648
I1035
aI35
aa(lp2649
I1036
aI35
aa(lp2650
I1037
aI35
aa(lp2651
I1038
aI35
aa(lp2652
I1039
aI35
aa(lp2653
I1045
aI35
aa(lp2654
I1047
aI35
aa(lp2655
I1054
aI35
aa(lp2656
I1058
aI35
aa(lp2657
I1059
aI35
aa(lp2658
I1060
aI35
aa(lp2659
I1068
aI35
aa(lp2660
I1070
aI35
aa(lp2661
I1071
aI35
aa(lp2662
I1072
aI35
aa(lp2663
I1073
aI35
aa(lp2664
I1075
aI35
aa(lp2665
I1076
aI35
aa(lp2666
I1077
aI35
aa(lp2667
I1079
aI35
aa(lp2668
I1080
aI35
aatp2669
Rp2670
sI28
g49
((lp2671
(lp2672
I0
aI28
aa(lp2673
I284
aI15
aa(lp2674
I762
aI38
aa(lp2675
I775
aI43
aa(lp2676
I881
aI43
aa(lp2677
I884
aI43
aa(lp2678
I891
aI39
aa(lp2679
I892
aI39
aa(lp2680
I893
aI39
aa(lp2681
I894
aI39
aa(lp2682
I895
aI39
aa(lp2683
I897
aI39
aa(lp2684
I898
aI39
aa(lp2685
I899
aI39
aa(lp2686
I900
aI39
aa(lp2687
I901
aI39
aa(lp2688
I903
aI39
aa(lp2689
I904
aI39
aa(lp2690
I905
aI39
aa(lp2691
I906
aI39
aa(lp2692
I907
aI39
aa(lp2693
I908
aI39
aa(lp2694
I909
aI39
aa(lp2695
I910
aI39
aa(lp2696
I911
aI39
aa(lp2697
I913
aI39
aa(lp2698
I914
aI39
aa(lp2699
I915
aI39
aa(lp2700
I916
aI39
aa(lp2701
I917
aI39
aa(lp2702
I918
aI39
aa(lp2703
I919
aI39
aa(lp2704
I920
aI39
aa(lp2705
I921
aI39
aa(lp2706
I922
aI39
aa(lp2707
I923
aI39
aa(lp2708
I924
aI39
aa(lp2709
I925
aI39
aa(lp2710
I931
aI39
aa(lp2711
I932
aI39
aa(lp2712
I933
aI39
aa(lp2713
I934
aI39
aa(lp2714
I935
aI39
aa(lp2715
I936
aI39
aa(lp2716
I937
aI39
aa(lp2717
I938
aI39
aa(lp2718
I939
aI39
aa(lp2719
I940
aI39
aa(lp2720
I941
aI39
aa(lp2721
I943
aI39
aa(lp2722
I944
aI39
aa(lp2723
I945
aI39
aa(lp2724
I946
aI39
aa(lp2725
I947
aI39
aa(lp2726
I948
aI39
aa(lp2727
I949
aI39
aa(lp2728
I950
aI39
aa(lp2729
I951
aI39
aa(lp2730
I952
aI39
aa(lp2731
I953
aI39
aa(lp2732
I954
aI39
aa(lp2733
I955
aI39
aa(lp2734
I956
aI39
aa(lp2735
I957
aI39
aa(lp2736
I958
aI39
aa(lp2737
I959
aI39
aa(lp2738
I960
aI39
aa(lp2739
I962
aI39
aa(lp2740
I963
aI39
aa(lp2741
I964
aI39
aa(lp2742
I965
aI39
aa(lp2743
I966
aI39
aa(lp2744
I967
aI39
aa(lp2745
I968
aI39
aa(lp2746
I972
aI39
aa(lp2747
I973
aI39
aa(lp2748
I974
aI39
aa(lp2749
I975
aI39
aa(lp2750
I976
aI39
aa(lp2751
I977
aI39
aa(lp2752
I978
aI39
aa(lp2753
I979
aI39
aa(lp2754
I980
aI39
aa(lp2755
I981
aI39
aa(lp2756
I982
aI39
aa(lp2757
I983
aI39
aa(lp2758
I984
aI39
aa(lp2759
I985
aI39
aa(lp2760
I986
aI39
aa(lp2761
I987
aI39
aa(lp2762
I988
aI39
aa(lp2763
I989
aI39
aa(lp2764
I991
aI39
aa(lp2765
I992
aI39
aa(lp2766
I993
aI39
aa(lp2767
I995
aI39
aa(lp2768
I996
aI39
aa(lp2769
I998
aI39
aa(lp2770
I1000
aI39
aa(lp2771
I1002
aI39
aa(lp2772
I1003
aI39
aa(lp2773
I1004
aI39
aa(lp2774
I1005
aI39
aa(lp2775
I1006
aI39
aa(lp2776
I1007
aI39
aa(lp2777
I1008
aI39
aa(lp2778
I1009
aI39
aa(lp2779
I1010
aI39
aa(lp2780
I1011
aI39
aa(lp2781
I1012
aI39
aa(lp2782
I1013
aI39
aa(lp2783
I1014
aI39
aa(lp2784
I1015
aI39
aa(lp2785
I1016
aI39
aa(lp2786
I1017
aI39
aa(lp2787
I1018
aI39
aa(lp2788
I1019
aI39
aa(lp2789
I1020
aI39
aa(lp2790
I1021
aI39
aa(lp2791
I1022
aI39
aa(lp2792
I1023
aI39
aa(lp2793
I1024
aI39
aa(lp2794
I1025
aI39
aa(lp2795
I1026
aI39
aa(lp2796
I1027
aI39
aa(lp2797
I1028
aI39
aa(lp2798
I1029
aI39
aa(lp2799
I1030
aI39
aa(lp2800
I1031
aI39
aa(lp2801
I1032
aI39
aa(lp2802
I1033
aI39
aa(lp2803
I1034
aI39
aa(lp2804
I1035
aI39
aa(lp2805
I1036
aI39
aa(lp2806
I1037
aI39
aa(lp2807
I1038
aI39
aa(lp2808
I1039
aI39
aa(lp2809
I1040
aI39
aa(lp2810
I1041
aI39
aa(lp2811
I1042
aI39
aa(lp2812
I1043
aI39
aa(lp2813
I1044
aI39
aa(lp2814
I1045
aI39
aa(lp2815
I1046
aI39
aa(lp2816
I1047
aI39
aa(lp2817
I1048
aI39
aa(lp2818
I1049
aI39
aa(lp2819
I1050
aI39
aa(lp2820
I1051
aI39
aa(lp2821
I1052
aI39
aa(lp2822
I1053
aI39
aa(lp2823
I1054
aI39
aa(lp2824
I1056
aI39
aa(lp2825
I1057
aI39
aa(lp2826
I1058
aI39
aa(lp2827
I1059
aI39
aa(lp2828
I1060
aI39
aa(lp2829
I1061
aI39
aa(lp2830
I1062
aI39
aa(lp2831
I1063
aI39
aa(lp2832
I1064
aI39
aa(lp2833
I1065
aI39
aa(lp2834
I1066
aI39
aa(lp2835
I1067
aI39
aa(lp2836
I1068
aI39
aa(lp2837
I1069
aI39
aa(lp2838
I1070
aI39
aa(lp2839
I1071
aI39
aa(lp2840
I1072
aI39
aa(lp2841
I1074
aI39
aa(lp2842
I1075
aI39
aa(lp2843
I1076
aI39
aa(lp2844
I1077
aI39
aa(lp2845
I1078
aI39
aa(lp2846
I1080
aI39
aa(lp2847
I1082
aI39
aa(lp2848
I1083
aI39
aa(lp2849
I1084
aI39
aa(lp2850
I1085
aI39
aa(lp2851
I1086
aI39
aa(lp2852
I1087
aI39
aa(lp2853
I1088
aI39
aa(lp2854
I1089
aI39
aa(lp2855
I1092
aI39
aa(lp2856
I1093
aI39
aa(lp2857
I1094
aI39
aa(lp2858
I1095
aI39
aa(lp2859
I1096
aI39
aa(lp2860
I1097
aI39
aa(lp2861
I1098
aI39
aa(lp2862
I1100
aI39
aa(lp2863
I1103
aI39
aa(lp2864
I1104
aI39
aa(lp2865
I1105
aI39
aa(lp2866
I1110
aI35
aa(lp2867
I1111
aI39
aa(lp2868
I1112
aI39
aa(lp2869
I1113
aI39
aa(lp2870
I1114
aI39
aa(lp2871
I1115
aI39
aa(lp2872
I1116
aI39
aa(lp2873
I1117
aI39
aa(lp2874
I1119
aI39
aa(lp2875
I1121
aI43
aa(lp2876
I1122
aI35
aatp2877
Rp2878
sI29
g49
((lp2879
(lp2880
I0
aI29
aa(lp2881
I195
aI30
aa(lp2882
I196
aI30
aa(lp2883
I197
aI30
aa(lp2884
I199
aI30
aa(lp2885
I200
aI30
aa(lp2886
I207
aI30
aa(lp2887
I212
aI30
aa(lp2888
I214
aI30
aa(lp2889
I219
aI30
aa(lp2890
I221
aI30
aa(lp2891
I227
aI30
aa(lp2892
I243
aI30
aa(lp2893
I248
aI30
aa(lp2894
I249
aI30
aa(lp2895
I251
aI30
aa(lp2896
I265
aI30
aa(lp2897
I270
aI30
aa(lp2898
I271
aI30
aa(lp2899
I275
aI30
aa(lp2900
I276
aI30
aa(lp2901
I277
aI30
aa(lp2902
I278
aI30
aa(lp2903
I279
aI30
aa(lp2904
I280
aI30
aa(lp2905
I292
aI35
aa(lp2906
I355
aI35
aa(lp2907
I357
aI35
aa(lp2908
I365
aI35
aa(lp2909
I378
aI35
aa(lp2910
I388
aI35
aa(lp2911
I390
aI35
aa(lp2912
I396
aI35
aa(lp2913
I399
aI35
aa(lp2914
I428
aI35
aa(lp2915
I494
aI35
aa(lp2916
I497
aI35
aa(lp2917
I498
aI35
aa(lp2918
I779
aI31
aa(lp2919
I781
aI31
aa(lp2920
I787
aI31
aa(lp2921
I788
aI31
aa(lp2922
I789
aI31
aa(lp2923
I797
aI31
aa(lp2924
I800
aI31
aa(lp2925
I804
aI31
aa(lp2926
I805
aI31
aa(lp2927
I806
aI31
aa(lp2928
I807
aI31
aa(lp2929
I808
aI31
aa(lp2930
I813
aI31
aa(lp2931
I814
aI31
aa(lp2932
I815
aI31
aa(lp2933
I816
aI31
aa(lp2934
I817
aI31
aa(lp2935
I818
aI31
aa(lp2936
I819
aI31
aa(lp2937
I820
aI31
aa(lp2938
I821
aI31
aa(lp2939
I822
aI31
aa(lp2940
I831
aI31
aa(lp2941
I832
aI31
aa(lp2942
I834
aI31
aa(lp2943
I838
aI31
aa(lp2944
I840
aI31
aa(lp2945
I850
aI31
aa(lp2946
I855
aI11
aa(lp2947
I862
aI31
aa(lp2948
I863
aI31
aa(lp2949
I866
aI31
aa(lp2950
I867
aI31
aa(lp2951
I873
aI31
aa(lp2952
I874
aI31
aa(lp2953
I883
aI31
aa(lp2954
I887
aI39
aa(lp2955
I893
aI31
aa(lp2956
I895
aI31
aa(lp2957
I896
aI31
aa(lp2958
I897
aI31
aa(lp2959
I898
aI31
aa(lp2960
I899
aI31
aa(lp2961
I909
aI31
aa(lp2962
I910
aI31
aa(lp2963
I911
aI31
aa(lp2964
I912
aI31
aa(lp2965
I913
aI31
aa(lp2966
I914
aI31
aa(lp2967
I915
aI31
aa(lp2968
I916
aI31
aa(lp2969
I917
aI31
aa(lp2970
I918
aI31
aa(lp2971
I919
aI31
aa(lp2972
I920
aI31
aa(lp2973
I921
aI31
aa(lp2974
I922
aI31
aa(lp2975
I923
aI31
aa(lp2976
I924
aI31
aa(lp2977
I925
aI31
aa(lp2978
I928
aI31
aa(lp2979
I929
aI31
aa(lp2980
I930
aI31
aa(lp2981
I931
aI31
aa(lp2982
I933
aI31
aa(lp2983
I934
aI31
aa(lp2984
I945
aI31
aa(lp2985
I948
aI31
aa(lp2986
I950
aI31
aa(lp2987
I951
aI31
aa(lp2988
I952
aI31
aa(lp2989
I953
aI31
aa(lp2990
I955
aI31
aa(lp2991
I956
aI31
aa(lp2992
I957
aI31
aa(lp2993
I958
aI31
aa(lp2994
I959
aI31
aa(lp2995
I960
aI31
aa(lp2996
I961
aI31
aa(lp2997
I964
aI31
aa(lp2998
I965
aI31
aa(lp2999
I966
aI31
aa(lp3000
I968
aI31
aa(lp3001
I969
aI31
aa(lp3002
I970
aI31
aa(lp3003
I971
aI31
aa(lp3004
I972
aI31
aa(lp3005
I973
aI31
aa(lp3006
I974
aI31
aa(lp3007
I975
aI31
aa(lp3008
I976
aI31
aa(lp3009
I980
aI31
aa(lp3010
I983
aI31
aa(lp3011
I984
aI31
aa(lp3012
I986
aI31
aa(lp3013
I997
aI31
aa(lp3014
I1005
aI31
aa(lp3015
I1006
aI11
aa(lp3016
I1010
aI35
aa(lp3017
I1012
aI35
aa(lp3018
I1089
aI35
aa(lp3019
I1091
aI35
aa(lp3020
I1092
aI35
aa(lp3021
I1093
aI35
aatp3022
Rp3023
sI30
g49
((lp3024
(lp3025
I0
aI30
aa(lp3026
I284
aI15
aa(lp3027
I315
aI11
aa(lp3028
I332
aI11
aa(lp3029
I341
aI11
aa(lp3030
I433
aI11
aa(lp3031
I459
aI11
aa(lp3032
I461
aI11
aa(lp3033
I465
aI11
aa(lp3034
I492
aI11
aa(lp3035
I493
aI11
aa(lp3036
I494
aI11
aa(lp3037
I497
aI11
aa(lp3038
I517
aI11
aa(lp3039
I523
aI42
aa(lp3040
I537
aI31
aa(lp3041
I538
aI31
aa(lp3042
I539
aI31
aa(lp3043
I541
aI31
aa(lp3044
I543
aI31
aa(lp3045
I544
aI31
aa(lp3046
I545
aI31
aa(lp3047
I546
aI31
aa(lp3048
I547
aI31
aa(lp3049
I548
aI31
aa(lp3050
I549
aI31
aa(lp3051
I550
aI31
aa(lp3052
I551
aI31
aa(lp3053
I552
aI31
aa(lp3054
I553
aI31
aa(lp3055
I554
aI31
aa(lp3056
I556
aI31
aa(lp3057
I557
aI31
aa(lp3058
I558
aI31
aa(lp3059
I559
aI31
aa(lp3060
I560
aI31
aa(lp3061
I561
aI31
aa(lp3062
I562
aI31
aa(lp3063
I563
aI31
aa(lp3064
I565
aI31
aa(lp3065
I566
aI31
aa(lp3066
I567
aI31
aa(lp3067
I568
aI31
aa(lp3068
I569
aI31
aa(lp3069
I570
aI31
aa(lp3070
I571
aI31
aa(lp3071
I572
aI31
aa(lp3072
I574
aI31
aa(lp3073
I577
aI31
aa(lp3074
I579
aI31
aa(lp3075
I582
aI31
aa(lp3076
I583
aI31
aa(lp3077
I585
aI31
aa(lp3078
I587
aI31
aa(lp3079
I590
aI31
aa(lp3080
I591
aI31
aa(lp3081
I592
aI31
aa(lp3082
I593
aI31
aa(lp3083
I594
aI31
aa(lp3084
I595
aI31
aa(lp3085
I596
aI31
aa(lp3086
I597
aI31
aa(lp3087
I599
aI31
aa(lp3088
I601
aI31
aa(lp3089
I603
aI31
aa(lp3090
I604
aI31
aa(lp3091
I605
aI31
aa(lp3092
I606
aI31
aa(lp3093
I607
aI31
aa(lp3094
I608
aI31
aa(lp3095
I609
aI31
aa(lp3096
I610
aI31
aa(lp3097
I611
aI31
aa(lp3098
I612
aI31
aa(lp3099
I613
aI31
aa(lp3100
I614
aI31
aa(lp3101
I615
aI31
aa(lp3102
I616
aI31
aa(lp3103
I618
aI31
aa(lp3104
I619
aI31
aa(lp3105
I621
aI31
aa(lp3106
I622
aI31
aa(lp3107
I623
aI31
aa(lp3108
I624
aI31
aa(lp3109
I627
aI31
aa(lp3110
I628
aI31
aa(lp3111
I629
aI31
aa(lp3112
I630
aI31
aa(lp3113
I631
aI31
aa(lp3114
I634
aI31
aa(lp3115
I644
aI31
aa(lp3116
I651
aI31
aa(lp3117
I657
aI31
aa(lp3118
I659
aI31
aa(lp3119
I668
aI31
aa(lp3120
I669
aI31
aa(lp3121
I672
aI31
aa(lp3122
I676
aI31
aa(lp3123
I677
aI31
aa(lp3124
I683
aI31
aa(lp3125
I692
aI31
aa(lp3126
I693
aI31
aa(lp3127
I706
aI31
aa(lp3128
I719
aI31
aa(lp3129
I723
aI31
aa(lp3130
I725
aI31
aa(lp3131
I727
aI31
aa(lp3132
I729
aI31
aa(lp3133
I741
aI31
aa(lp3134
I744
aI31
aa(lp3135
I750
aI31
aa(lp3136
I779
aI43
aa(lp3137
I807
aI11
aa(lp3138
I808
aI11
aa(lp3139
I809
aI11
aa(lp3140
I810
aI11
aa(lp3141
I811
aI11
aa(lp3142
I812
aI11
aa(lp3143
I813
aI11
aa(lp3144
I814
aI11
aa(lp3145
I815
aI11
aa(lp3146
I817
aI11
aa(lp3147
I822
aI11
aa(lp3148
I823
aI11
aa(lp3149
I824
aI11
aa(lp3150
I827
aI11
aa(lp3151
I828
aI11
aa(lp3152
I829
aI11
aa(lp3153
I831
aI11
aa(lp3154
I869
aI39
aa(lp3155
I870
aI39
aa(lp3156
I889
aI43
aa(lp3157
I1128
aI43
aa(lp3158
I1129
aI43
aa(lp3159
I1135
aI35
aa(lp3160
I1136
aI35
aa(lp3161
I1139
aI35
aa(lp3162
I1142
aI35
aa(lp3163
I1145
aI35
aa(lp3164
I1154
aI35
aa(lp3165
I1168
aI35
aa(lp3166
I1171
aI35
aa(lp3167
I1173
aI35
aa(lp3168
I1174
aI35
aa(lp3169
I1175
aI35
aa(lp3170
I1176
aI35
aa(lp3171
I1177
aI35
aa(lp3172
I1178
aI35
aa(lp3173
I1179
aI35
aa(lp3174
I1182
aI35
aa(lp3175
I1183
aI35
aa(lp3176
I1184
aI35
aa(lp3177
I1185
aI35
aa(lp3178
I1186
aI35
aa(lp3179
I1187
aI35
aa(lp3180
I1188
aI35
aa(lp3181
I1189
aI35
aa(lp3182
I1192
aI35
aa(lp3183
I1195
aI35
aa(lp3184
I1197
aI35
aa(lp3185
I1199
aI35
aa(lp3186
I1200
aI35
aa(lp3187
I1202
aI35
aa(lp3188
I1204
aI35
aa(lp3189
I1205
aI35
aa(lp3190
I1207
aI35
aa(lp3191
I1208
aI35
aa(lp3192
I1209
aI35
aa(lp3193
I1210
aI35
aa(lp3194
I1211
aI35
aa(lp3195
I1212
aI35
aa(lp3196
I1213
aI35
aa(lp3197
I1214
aI35
aa(lp3198
I1215
aI35
aa(lp3199
I1216
aI35
aa(lp3200
I1217
aI35
aa(lp3201
I1218
aI35
aa(lp3202
I1220
aI35
aa(lp3203
I1222
aI35
aa(lp3204
I1223
aI35
aa(lp3205
I1224
aI35
aa(lp3206
I1225
aI35
aa(lp3207
I1228
aI35
aa(lp3208
I1229
aI35
aa(lp3209
I1230
aI35
aa(lp3210
I1232
aI35
aa(lp3211
I1233
aI35
aa(lp3212
I1234
aI35
aa(lp3213
I1235
aI35
aa(lp3214
I1236
aI35
aa(lp3215
I1241
aI35
aa(lp3216
I1242
aI35
aa(lp3217
I1249
aI35
aa(lp3218
I1250
aI35
aa(lp3219
I1251
aI35
aa(lp3220
I1252
aI35
aa(lp3221
I1253
aI35
aa(lp3222
I1254
aI35
aa(lp3223
I1255
aI35
aa(lp3224
I1256
aI35
aa(lp3225
I1258
aI35
aa(lp3226
I1410
aI39
aa(lp3227
I1417
aI39
aatp3228
Rp3229
sI31
g49
((lp3230
(lp3231
I0
aI31
aa(lp3232
I864
aI35
aatp3233
Rp3234
sI32
g49
((lp3235
(lp3236
I0
aI32
aa(lp3237
I281
aI2
aa(lp3238
I295
aI35
aa(lp3239
I296
aI35
aa(lp3240
I297
aI35
aa(lp3241
I298
aI35
aa(lp3242
I300
aI35
aa(lp3243
I303
aI35
aa(lp3244
I304
aI35
aa(lp3245
I305
aI35
aa(lp3246
I306
aI35
aa(lp3247
I307
aI35
aa(lp3248
I308
aI35
aa(lp3249
I309
aI35
aa(lp3250
I310
aI35
aa(lp3251
I312
aI35
aa(lp3252
I313
aI35
aa(lp3253
I314
aI35
aa(lp3254
I319
aI35
aa(lp3255
I325
aI35
aa(lp3256
I326
aI35
aa(lp3257
I327
aI35
aa(lp3258
I328
aI35
aa(lp3259
I329
aI35
aa(lp3260
I330
aI35
aa(lp3261
I331
aI35
aa(lp3262
I332
aI35
aa(lp3263
I333
aI35
aa(lp3264
I334
aI35
aa(lp3265
I335
aI35
aa(lp3266
I336
aI35
aa(lp3267
I337
aI35
aa(lp3268
I338
aI35
aa(lp3269
I339
aI35
aa(lp3270
I340
aI35
aa(lp3271
I341
aI35
aa(lp3272
I342
aI35
aa(lp3273
I343
aI35
aa(lp3274
I344
aI35
aa(lp3275
I345
aI35
aa(lp3276
I346
aI35
aa(lp3277
I347
aI35
aa(lp3278
I348
aI35
aa(lp3279
I349
aI35
aa(lp3280
I350
aI35
aa(lp3281
I351
aI35
aa(lp3282
I352
aI35
aa(lp3283
I353
aI35
aa(lp3284
I354
aI35
aa(lp3285
I355
aI35
aa(lp3286
I356
aI35
aa(lp3287
I357
aI35
aa(lp3288
I358
aI35
aa(lp3289
I359
aI35
aa(lp3290
I360
aI35
aa(lp3291
I361
aI35
aa(lp3292
I362
aI35
aa(lp3293
I363
aI35
aa(lp3294
I364
aI35
aa(lp3295
I365
aI35
aa(lp3296
I366
aI35
aa(lp3297
I367
aI35
aa(lp3298
I368
aI35
aa(lp3299
I369
aI35
aa(lp3300
I370
aI35
aa(lp3301
I371
aI35
aa(lp3302
I372
aI35
aa(lp3303
I373
aI35
aa(lp3304
I374
aI35
aa(lp3305
I375
aI35
aa(lp3306
I376
aI35
aa(lp3307
I377
aI35
aa(lp3308
I378
aI35
aa(lp3309
I379
aI35
aa(lp3310
I380
aI35
aa(lp3311
I381
aI35
aa(lp3312
I382
aI35
aa(lp3313
I383
aI35
aa(lp3314
I384
aI35
aa(lp3315
I385
aI35
aa(lp3316
I386
aI35
aa(lp3317
I387
aI35
aa(lp3318
I388
aI35
aa(lp3319
I389
aI35
aa(lp3320
I390
aI35
aa(lp3321
I391
aI35
aa(lp3322
I392
aI35
aa(lp3323
I393
aI35
aa(lp3324
I394
aI35
aa(lp3325
I395
aI35
aa(lp3326
I396
aI35
aa(lp3327
I397
aI35
aa(lp3328
I398
aI35
aa(lp3329
I399
aI35
aa(lp3330
I400
aI35
aa(lp3331
I401
aI35
aa(lp3332
I402
aI35
aa(lp3333
I403
aI35
aa(lp3334
I404
aI35
aa(lp3335
I405
aI35
aa(lp3336
I406
aI35
aa(lp3337
I407
aI35
aa(lp3338
I408
aI35
aa(lp3339
I409
aI35
aa(lp3340
I410
aI35
aa(lp3341
I411
aI35
aa(lp3342
I412
aI35
aa(lp3343
I413
aI35
aa(lp3344
I414
aI35
aa(lp3345
I415
aI35
aa(lp3346
I416
aI35
aa(lp3347
I417
aI35
aa(lp3348
I418
aI35
aa(lp3349
I420
aI35
aa(lp3350
I421
aI35
aa(lp3351
I422
aI35
aa(lp3352
I423
aI35
aa(lp3353
I424
aI35
aa(lp3354
I429
aI35
aa(lp3355
I430
aI35
aa(lp3356
I431
aI35
aa(lp3357
I432
aI35
aa(lp3358
I433
aI35
aa(lp3359
I434
aI35
aa(lp3360
I435
aI35
aa(lp3361
I436
aI35
aa(lp3362
I437
aI35
aa(lp3363
I439
aI35
aa(lp3364
I441
aI35
aa(lp3365
I442
aI35
aa(lp3366
I443
aI35
aa(lp3367
I444
aI35
aa(lp3368
I445
aI35
aa(lp3369
I446
aI35
aa(lp3370
I447
aI35
aa(lp3371
I448
aI35
aa(lp3372
I449
aI35
aa(lp3373
I450
aI35
aa(lp3374
I451
aI35
aa(lp3375
I452
aI35
aa(lp3376
I453
aI35
aa(lp3377
I454
aI35
aa(lp3378
I455
aI35
aa(lp3379
I456
aI35
aa(lp3380
I457
aI35
aa(lp3381
I458
aI35
aa(lp3382
I459
aI35
aa(lp3383
I460
aI35
aa(lp3384
I461
aI35
aa(lp3385
I462
aI35
aa(lp3386
I464
aI35
aa(lp3387
I466
aI35
aa(lp3388
I467
aI35
aa(lp3389
I468
aI35
aa(lp3390
I469
aI35
aa(lp3391
I470
aI35
aa(lp3392
I471
aI35
aa(lp3393
I472
aI35
aa(lp3394
I473
aI35
aa(lp3395
I474
aI35
aa(lp3396
I475
aI35
aa(lp3397
I476
aI35
aa(lp3398
I477
aI35
aa(lp3399
I478
aI35
aa(lp3400
I479
aI35
aa(lp3401
I480
aI35
aa(lp3402
I482
aI35
aa(lp3403
I483
aI35
aa(lp3404
I484
aI35
aa(lp3405
I485
aI35
aa(lp3406
I486
aI35
aa(lp3407
I487
aI35
aa(lp3408
I489
aI35
aa(lp3409
I490
aI35
aa(lp3410
I493
aI35
aa(lp3411
I495
aI35
aa(lp3412
I496
aI35
aa(lp3413
I498
aI35
aa(lp3414
I499
aI35
aa(lp3415
I503
aI35
aa(lp3416
I508
aI35
aa(lp3417
I511
aI35
aa(lp3418
I524
aI31
aa(lp3419
I525
aI31
aa(lp3420
I526
aI31
aa(lp3421
I527
aI31
aa(lp3422
I528
aI31
aa(lp3423
I529
aI31
aa(lp3424
I530
aI31
aa(lp3425
I531
aI31
aa(lp3426
I532
aI31
aa(lp3427
I538
aI31
aa(lp3428
I540
aI31
aa(lp3429
I542
aI31
aa(lp3430
I544
aI31
aa(lp3431
I546
aI31
aa(lp3432
I549
aI31
aa(lp3433
I553
aI31
aa(lp3434
I554
aI31
aa(lp3435
I561
aI31
aa(lp3436
I574
aI31
aa(lp3437
I596
aI31
aa(lp3438
I623
aI31
aa(lp3439
I624
aI31
aa(lp3440
I631
aI31
aa(lp3441
I635
aI31
aa(lp3442
I645
aI31
aa(lp3443
I650
aI31
aa(lp3444
I651
aI31
aa(lp3445
I652
aI27
aa(lp3446
I653
aI31
aa(lp3447
I657
aI31
aa(lp3448
I667
aI31
aa(lp3449
I669
aI31
aa(lp3450
I682
aI31
aa(lp3451
I683
aI31
aa(lp3452
I686
aI31
aa(lp3453
I687
aI31
aa(lp3454
I690
aI31
aa(lp3455
I691
aI31
aa(lp3456
I693
aI31
aa(lp3457
I694
aI31
aa(lp3458
I697
aI31
aa(lp3459
I707
aI31
aa(lp3460
I710
aI31
aa(lp3461
I714
aI31
aa(lp3462
I715
aI31
aa(lp3463
I716
aI31
aa(lp3464
I717
aI31
aa(lp3465
I718
aI31
aa(lp3466
I719
aI31
aa(lp3467
I720
aI31
aa(lp3468
I721
aI31
aa(lp3469
I723
aI31
aa(lp3470
I724
aI31
aa(lp3471
I725
aI31
aa(lp3472
I726
aI31
aa(lp3473
I728
aI31
aa(lp3474
I734
aI31
aa(lp3475
I735
aI31
aa(lp3476
I736
aI31
aa(lp3477
I737
aI31
aa(lp3478
I738
aI31
aa(lp3479
I739
aI31
aa(lp3480
I741
aI31
aa(lp3481
I743
aI31
aa(lp3482
I745
aI31
aa(lp3483
I748
aI31
aa(lp3484
I749
aI31
aa(lp3485
I750
aI31
aa(lp3486
I816
aI39
aa(lp3487
I823
aI39
aa(lp3488
I825
aI39
aa(lp3489
I843
aI31
aa(lp3490
I845
aI23
aa(lp3491
I852
aI31
aa(lp3492
I861
aI31
aa(lp3493
I866
aI31
aa(lp3494
I875
aI31
aa(lp3495
I881
aI31
aa(lp3496
I882
aI31
aa(lp3497
I885
aI31
aa(lp3498
I886
aI31
aa(lp3499
I887
aI31
aa(lp3500
I890
aI31
aa(lp3501
I1383
aI43
aa(lp3502
I1384
aI43
aatp3503
Rp3504
sI33
g49
((lp3505
(lp3506
I0
aI33
aa(lp3507
I233
aI31
aa(lp3508
I236
aI31
aa(lp3509
I237
aI31
aa(lp3510
I249
aI31
aa(lp3511
I255
aI31
aa(lp3512
I256
aI31
aa(lp3513
I257
aI31
aa(lp3514
I258
aI31
aa(lp3515
I260
aI31
aa(lp3516
I261
aI31
aa(lp3517
I263
aI31
aa(lp3518
I265
aI31
aa(lp3519
I267
aI31
aa(lp3520
I268
aI31
aa(lp3521
I269
aI31
aa(lp3522
I270
aI31
aa(lp3523
I274
aI31
aa(lp3524
I275
aI31
aa(lp3525
I409
aI11
aa(lp3526
I440
aI11
aa(lp3527
I782
aI31
aa(lp3528
I783
aI31
aa(lp3529
I787
aI31
aa(lp3530
I790
aI31
aa(lp3531
I796
aI31
aa(lp3532
I797
aI31
aa(lp3533
I798
aI31
aa(lp3534
I799
aI31
aa(lp3535
I800
aI31
aa(lp3536
I802
aI31
aa(lp3537
I803
aI31
aa(lp3538
I804
aI31
aa(lp3539
I805
aI31
aa(lp3540
I1121
aI35
aa(lp3541
I1130
aI23
aa(lp3542
I1134
aI23
aa(lp3543
I1141
aI23
aa(lp3544
I1142
aI23
aa(lp3545
I1143
aI23
aa(lp3546
I1144
aI23
aa(lp3547
I1145
aI23
aa(lp3548
I1146
aI23
aa(lp3549
I1147
aI23
aa(lp3550
I1148
aI23
aa(lp3551
I1151
aI23
aa(lp3552
I1152
aI23
aa(lp3553
I1153
aI23
aa(lp3554
I1154
aI23
aa(lp3555
I1155
aI23
aa(lp3556
I1156
aI23
aa(lp3557
I1157
aI23
aa(lp3558
I1159
aI23
aa(lp3559
I1160
aI23
aa(lp3560
I1161
aI23
aa(lp3561
I1162
aI23
aa(lp3562
I1164
aI23
aa(lp3563
I1166
aI23
aa(lp3564
I1171
aI23
aa(lp3565
I1172
aI23
aa(lp3566
I1173
aI23
aa(lp3567
I1174
aI23
aa(lp3568
I1175
aI23
aa(lp3569
I1177
aI23
aa(lp3570
I1179
aI23
aa(lp3571
I1185
aI23
aa(lp3572
I1186
aI23
aa(lp3573
I1187
aI23
aa(lp3574
I1188
aI23
aa(lp3575
I1189
aI23
aa(lp3576
I1190
aI23
aa(lp3577
I1191
aI23
aa(lp3578
I1192
aI23
aa(lp3579
I1193
aI23
aa(lp3580
I1194
aI23
aa(lp3581
I1197
aI23
aa(lp3582
I1198
aI23
aa(lp3583
I1200
aI23
aa(lp3584
I1201
aI23
aa(lp3585
I1202
aI23
aa(lp3586
I1203
aI23
aa(lp3587
I1204
aI23
aa(lp3588
I1205
aI23
aa(lp3589
I1207
aI23
aa(lp3590
I1208
aI23
aa(lp3591
I1217
aI23
aa(lp3592
I1223
aI23
aa(lp3593
I1226
aI23
aa(lp3594
I1227
aI23
aa(lp3595
I1228
aI23
aa(lp3596
I1230
aI23
aa(lp3597
I1231
aI23
aa(lp3598
I1232
aI23
aa(lp3599
I1235
aI23
aa(lp3600
I1269
aI23
aa(lp3601
I1290
aI23
aa(lp3602
I1291
aI23
aa(lp3603
I1292
aI23
aa(lp3604
I1293
aI23
aa(lp3605
I1295
aI23
aa(lp3606
I1300
aI23
aa(lp3607
I1302
aI23
aa(lp3608
I1303
aI23
aa(lp3609
I1304
aI23
aa(lp3610
I1326
aI23
aa(lp3611
I1347
aI23
aa(lp3612
I1350
aI23
aa(lp3613
I1351
aI23
aa(lp3614
I1352
aI23
aa(lp3615
I1354
aI23
aa(lp3616
I1525
aI34
aa(lp3617
I1526
aI34
aa(lp3618
I1528
aI34
aatp3619
Rp3620
sI34
g49
((lp3621
(lp3622
I0
aI34
aatp3623
Rp3624
sI35
g49
((lp3625
(lp3626
I0
aI35
aa(lp3627
I1381
aI39
aa(lp3628
I1394
aI39
aa(lp3629
I1483
aI39
aa(lp3630
I1523
aI39
aa(lp3631
I1525
aI39
aatp3632
Rp3633
sI36
g49
((lp3634
(lp3635
I0
aI36
aa(lp3636
I526
aI11
aa(lp3637
I539
aI31
aa(lp3638
I588
aI31
aa(lp3639
I660
aI31
aa(lp3640
I661
aI31
aa(lp3641
I665
aI31
aa(lp3642
I666
aI31
aa(lp3643
I750
aI31
aa(lp3644
I773
aI31
aa(lp3645
I1016
aI35
aa(lp3646
I1020
aI43
aa(lp3647
I1026
aI35
aa(lp3648
I1069
aI35
aa(lp3649
I1078
aI35
aa(lp3650
I1080
aI35
aa(lp3651
I1090
aI35
aa(lp3652
I1091
aI35
aa(lp3653
I1105
aI35
aa(lp3654
I1130
aI35
aa(lp3655
I1131
aI35
aa(lp3656
I1141
aI35
aa(lp3657
I1143
aI35
aa(lp3658
I1145
aI35
aa(lp3659
I1336
aI35
aa(lp3660
I1380
aI35
aa(lp3661
I1386
aI35
aa(lp3662
I1466
aI43
aa(lp3663
I1486
aI35
aatp3664
Rp3665
sI37
g49
((lp3666
(lp3667
I0
aI37
aa(lp3668
I287
aI27
aa(lp3669
I854
aI39
aa(lp3670
I1157
aI39
aatp3671
Rp3672
sI38
g49
((lp3673
(lp3674
I0
aI38
aa(lp3675
I1136
aI35
aa(lp3676
I1137
aI35
aa(lp3677
I1139
aI35
aa(lp3678
I1142
aI35
aa(lp3679
I1144
aI35
aa(lp3680
I1151
aI35
aa(lp3681
I1152
aI35
aa(lp3682
I1153
aI35
aa(lp3683
I1160
aI35
aa(lp3684
I1163
aI35
aa(lp3685
I1164
aI35
aa(lp3686
I1219
aI35
aa(lp3687
I1241
aI35
aa(lp3688
I1246
aI35
aa(lp3689
I1248
aI35
aa(lp3690
I1249
aI35
aa(lp3691
I1270
aI35
aa(lp3692
I1271
aI35
aa(lp3693
I1272
aI35
aa(lp3694
I1274
aI35
aa(lp3695
I1275
aI35
aa(lp3696
I1276
aI35
aa(lp3697
I1277
aI35
aa(lp3698
I1279
aI35
aa(lp3699
I1280
aI35
aa(lp3700
I1285
aI35
aa(lp3701
I1288
aI35
aa(lp3702
I1289
aI35
aa(lp3703
I1293
aI35
aa(lp3704
I1295
aI35
aa(lp3705
I1296
aI35
aa(lp3706
I1299
aI35
aa(lp3707
I1300
aI35
aa(lp3708
I1302
aI35
aa(lp3709
I1303
aI35
aa(lp3710
I1305
aI35
aa(lp3711
I1306
aI35
aa(lp3712
I1307
aI35
aa(lp3713
I1312
aI35
aa(lp3714
I1313
aI35
aa(lp3715
I1318
aI35
aa(lp3716
I1319
aI35
aa(lp3717
I1327
aI35
aatp3718
Rp3719
sI39
g49
((lp3720
(lp3721
I0
aI39
aatp3722
Rp3723
sI40
g49
((lp3724
(lp3725
I0
aI40
aa(lp3726
I526
aI15
aa(lp3727
I530
aI31
aa(lp3728
I769
aI35
aa(lp3729
I974
aI18
aa(lp3730
I1009
aI31
aa(lp3731
I1011
aI23
aa(lp3732
I1012
aI18
aa(lp3733
I1013
aI18
aa(lp3734
I1019
aI31
aa(lp3735
I1024
aI35
aa(lp3736
I1027
aI35
aa(lp3737
I1031
aI35
aa(lp3738
I1034
aI35
aa(lp3739
I1042
aI35
aa(lp3740
I1056
aI35
aa(lp3741
I1068
aI35
aa(lp3742
I1069
aI35
aa(lp3743
I1073
aI35
aa(lp3744
I1078
aI35
aa(lp3745
I1081
aI35
aa(lp3746
I1126
aI23
aa(lp3747
I1127
aI31
aatp3748
Rp3749
sI41
g49
((lp3750
(lp3751
I0
aI41
aa(lp3752
I230
aI11
aa(lp3753
I240
aI11
aa(lp3754
I281
aI11
aa(lp3755
I310
aI11
aa(lp3756
I387
aI11
aa(lp3757
I454
aI11
aa(lp3758
I462
aI11
aa(lp3759
I463
aI11
aa(lp3760
I465
aI11
aa(lp3761
I474
aI11
aa(lp3762
I475
aI11
aa(lp3763
I486
aI11
aa(lp3764
I540
aI31
aa(lp3765
I543
aI31
aa(lp3766
I614
aI31
aa(lp3767
I615
aI31
aa(lp3768
I660
aI31
aa(lp3769
I665
aI31
aa(lp3770
I666
aI31
aa(lp3771
I689
aI31
aa(lp3772
I705
aI31
aa(lp3773
I706
aI31
aa(lp3774
I710
aI31
aa(lp3775
I712
aI31
aa(lp3776
I713
aI31
aa(lp3777
I714
aI31
aa(lp3778
I734
aI31
aa(lp3779
I752
aI31
aa(lp3780
I753
aI31
aa(lp3781
I754
aI31
aa(lp3782
I760
aI31
aa(lp3783
I773
aI31
aa(lp3784
I776
aI31
aa(lp3785
I790
aI31
aa(lp3786
I848
aI39
aa(lp3787
I901
aI39
aa(lp3788
I958
aI39
aa(lp3789
I1423
aI39
aa(lp3790
I1425
aI39
aa(lp3791
I1426
aI39
aa(lp3792
I1427
aI39
aa(lp3793
I1431
aI39
aa(lp3794
I1480
aI39
aa(lp3795
I1482
aI39
aa(lp3796
I1487
aI39
aa(lp3797
I1488
aI39
aa(lp3798
I1491
aI39
aa(lp3799
I1494
aI39
aa(lp3800
I1501
aI39
aa(lp3801
I1505
aI39
aa(lp3802
I1506
aI39
aa(lp3803
I1507
aI39
aa(lp3804
I1512
aI39
aa(lp3805
I1513
aI39
aa(lp3806
I1518
aI39
aa(lp3807
I1520
aI39
aatp3808
Rp3809
sI42
g49
((lp3810
(lp3811
I0
aI42
aa(lp3812
I769
aI11
aa(lp3813
I1090
aI35
aa(lp3814
I1112
aI23
aa(lp3815
I1113
aI23
aatp3816
Rp3817
sI43
g49
((lp3818
(lp3819
I0
aI43
aatp3820
Rp3821
ss.